(dp1
S'TRAIN'
p2
((lp3
I0
aI20
aI40
aI60
aI80
aI100
aI120
aI140
aI160
aI180
aI200
aI220
aI240
aI260
aI280
aI300
aI320
aI340
aI360
aI380
aI400
aI420
aI440
aI460
aI480
aI500
aI520
aI540
aI560
aI580
aI600
aI620
aI640
aI660
aI680
aI700
aI720
aI740
aI760
aI780
aI800
aI820
aI840
aI860
aI880
aI900
aI920
aI940
aI960
aI980
aI1000
aI1020
aI1040
aI1060
aI1080
aI1100
aI1120
aI1140
aI1160
aI1180
aI1200
aI1220
aI1240
aI1260
aI1280
aI1300
aI1320
aI1340
aI1360
aI1380
aI1400
aI1420
aI1440
aI1460
aI1480
aI1500
aI1520
aI1540
aI1560
aI1580
aI1600
aI1620
aI1640
aI1660
aI1680
aI1700
aI1720
aI1740
aI1760
aI1780
aI1800
aI1820
aI1840
aI1860
aI1880
aI1900
aI1920
aI1940
aI1960
aI1980
aI2000
aI2020
aI2040
aI2060
aI2080
aI2100
aI2120
aI2140
aI2160
aI2180
aI2200
aI2220
aI2240
aI2260
aI2280
aI2300
aI2320
aI2340
aI2360
aI2380
aI2400
aI2420
aI2440
aI2460
aI2480
aI2500
aI2520
aI2540
aI2560
aI2580
aI2600
aI2620
aI2640
aI2660
aI2680
aI2700
aI2720
aI2740
aI2760
aI2780
aI2800
aI2820
aI2840
aI2860
aI2880
aI2900
aI2920
aI2940
aI2960
aI2980
aI3000
aI3020
aI3040
aI3060
aI3080
aI3100
aI3120
aI3140
aI3160
aI3180
aI3200
aI3220
aI3240
aI3260
aI3280
aI3300
aI3320
aI3340
aI3360
aI3380
aI3400
aI3420
aI3440
aI3460
aI3480
aI3500
aI3520
aI3540
aI3560
aI3580
aI3600
aI3620
aI3640
aI3660
aI3680
aI3700
aI3720
aI3740
aI3760
aI3780
aI3800
aI3820
aI3840
aI3860
aI3880
aI3900
aI3920
aI3940
aI3960
aI3980
aI4000
aI4020
aI4040
aI4060
aI4080
aI4100
aI4120
aI4140
aI4160
aI4180
aI4200
aI4220
aI4240
aI4260
aI4280
aI4300
aI4320
aI4340
aI4360
aI4380
aI4400
aI4420
aI4440
aI4460
aI4480
aI4500
aI4520
aI4540
aI4560
aI4580
aI4600
aI4620
aI4640
aI4660
aI4680
aI4700
aI4720
aI4740
aI4760
aI4780
aI4800
aI4820
aI4840
aI4860
aI4880
aI4900
aI4920
aI4940
aI4960
aI4980
aI5000
aI5020
aI5040
aI5060
aI5080
aI5100
aI5120
aI5140
aI5160
aI5180
aI5200
aI5220
aI5240
aI5260
aI5280
aI5300
aI5320
aI5340
aI5360
aI5380
aI5400
aI5420
aI5440
aI5460
aI5480
aI5500
aI5520
aI5540
aI5560
aI5580
aI5600
aI5620
aI5640
aI5660
aI5680
aI5700
aI5720
aI5740
aI5760
aI5780
aI5800
aI5820
aI5840
aI5860
aI5880
aI5900
aI5920
aI5940
aI5960
aI5980
aI6000
aI6020
aI6040
aI6060
aI6080
aI6100
aI6120
aI6140
aI6160
aI6180
aI6200
aI6220
aI6240
aI6260
aI6280
aI6300
aI6320
aI6340
aI6360
aI6380
aI6400
aI6420
aI6440
aI6460
aI6480
aI6500
aI6520
aI6540
aI6560
aI6580
aI6600
aI6620
aI6640
aI6660
aI6680
aI6700
aI6720
aI6740
aI6760
aI6780
aI6800
aI6820
aI6840
aI6860
aI6880
aI6900
aI6920
aI6940
aI6960
aI6980
aI7000
aI7020
aI7040
aI7060
aI7080
aI7100
aI7120
aI7140
aI7160
aI7180
aI7200
aI7220
aI7240
aI7260
aI7280
aI7300
aI7320
aI7340
aI7360
aI7380
aI7400
aI7420
aI7440
aI7460
aI7480
aI7500
aI7520
aI7540
aI7560
aI7580
aI7600
aI7620
aI7640
aI7660
aI7680
aI7700
aI7720
aI7740
aI7760
aI7780
aI7800
aI7820
aI7840
aI7860
aI7880
aI7900
aI7920
aI7940
aI7960
aI7980
aI8000
aI8020
aI8040
aI8060
aI8080
aI8100
aI8120
aI8140
aI8160
aI8180
aI8200
aI8220
aI8240
aI8260
aI8280
aI8300
aI8320
aI8340
aI8360
aI8380
aI8400
aI8420
aI8440
aI8460
aI8480
aI8500
aI8520
aI8540
aI8560
aI8580
aI8600
aI8620
aI8640
aI8660
aI8680
aI8700
aI8720
aI8740
aI8760
aI8780
aI8800
aI8820
aI8840
aI8860
aI8880
aI8900
aI8920
aI8940
aI8960
aI8980
aI9000
aI9020
aI9040
aI9060
aI9080
aI9100
aI9120
aI9140
aI9160
aI9180
aI9200
aI9220
aI9240
aI9260
aI9280
aI9300
aI9320
aI9340
aI9360
aI9380
aI9400
aI9420
aI9440
aI9460
aI9480
aI9500
aI9520
aI9540
aI9560
aI9580
aI9600
aI9620
aI9640
aI9660
aI9680
aI9700
aI9720
aI9740
aI9760
aI9780
aI9800
aI9820
aI9840
aI9860
aI9880
aI9900
aI9920
aI9940
aI9960
aI9980
aI10000
aI10020
aI10040
aI10060
aI10080
aI10100
aI10120
aI10140
aI10160
aI10180
aI10200
aI10220
aI10240
aI10260
aI10280
aI10300
aI10320
aI10340
aI10360
aI10380
aI10400
aI10420
aI10440
aI10460
aI10480
aI10500
aI10520
aI10540
aI10560
aI10580
aI10600
aI10620
aI10640
aI10660
aI10680
aI10700
aI10720
aI10740
aI10760
aI10780
aI10800
aI10820
aI10840
aI10860
aI10880
aI10900
aI10920
aI10940
aI10960
aI10980
aI11000
aI11020
aI11040
aI11060
aI11080
aI11100
aI11120
aI11140
aI11160
aI11180
aI11200
aI11220
aI11240
aI11260
aI11280
aI11300
aI11320
aI11340
aI11360
aI11380
aI11400
aI11420
aI11440
aI11460
aI11480
aI11500
aI11520
aI11540
aI11560
aI11580
aI11600
aI11620
aI11640
aI11660
aI11680
aI11700
aI11720
aI11740
aI11760
aI11780
aI11800
aI11820
aI11840
aI11860
aI11880
aI11900
aI11920
aI11940
aI11960
aI11980
aI12000
aI12020
aI12040
aI12060
aI12080
aI12100
aI12120
aI12140
aI12160
aI12180
aI12200
aI12220
aI12240
aI12260
aI12280
aI12300
aI12320
aI12340
aI12360
aI12380
aI12400
aI12420
aI12440
aI12460
aI12480
aI12500
aI12520
aI12540
aI12560
aI12580
aI12600
aI12620
aI12640
aI12660
aI12680
aI12700
aI12720
aI12740
aI12760
aI12780
aI12800
aI12820
aI12840
aI12860
aI12880
aI12900
aI12920
aI12940
aI12960
aI12980
aI13000
aI13020
aI13040
aI13060
aI13080
aI13100
aI13120
aI13140
aI13160
aI13180
aI13200
aI13220
aI13240
aI13260
aI13280
aI13300
aI13320
aI13340
aI13360
aI13380
aI13400
aI13420
aI13440
aI13460
aI13480
aI13500
aI13520
aI13540
aI13560
aI13580
aI13600
aI13620
aI13640
aI13660
aI13680
aI13700
aI13720
aI13740
aI13760
aI13780
aI13800
aI13820
aI13840
aI13860
aI13880
aI13900
aI13920
aI13940
aI13960
aI13980
aI14000
aI14020
aI14040
aI14060
aI14080
aI14100
aI14120
aI14140
aI14160
aI14180
aI14200
aI14220
aI14240
aI14260
aI14280
aI14300
aI14320
aI14340
aI14360
aI14380
aI14400
aI14420
aI14440
aI14460
aI14480
aI14500
aI14520
aI14540
aI14560
aI14580
aI14600
aI14620
aI14640
aI14660
aI14680
aI14700
aI14720
aI14740
aI14760
aI14780
aI14800
aI14820
aI14840
aI14860
aI14880
aI14900
aI14920
aI14940
aI14960
aI14980
aI15000
aI15020
aI15040
aI15060
aI15080
aI15100
aI15120
aI15140
aI15160
aI15180
aI15200
aI15220
aI15240
aI15260
aI15280
aI15300
aI15320
aI15340
aI15360
aI15380
aI15400
aI15420
aI15440
aI15460
aI15480
aI15500
aI15520
aI15540
aI15560
aI15580
aI15600
aI15620
aI15640
aI15660
aI15680
aI15700
aI15720
aI15740
aI15760
aI15780
aI15800
aI15820
aI15840
aI15860
aI15880
aI15900
aI15920
aI15940
aI15960
aI15980
aI16000
aI16020
aI16040
aI16060
aI16080
aI16100
aI16120
aI16140
aI16160
aI16180
aI16200
aI16220
aI16240
aI16260
aI16280
aI16300
aI16320
aI16340
aI16360
aI16380
aI16400
aI16420
aI16440
aI16460
aI16480
aI16500
aI16520
aI16540
aI16560
aI16580
aI16600
aI16620
aI16640
aI16660
aI16680
aI16700
aI16720
aI16740
aI16760
aI16780
aI16800
aI16820
aI16840
aI16860
aI16880
aI16900
aI16920
aI16940
aI16960
aI16980
aI17000
aI17020
aI17040
aI17060
aI17080
aI17100
aI17120
aI17140
aI17160
aI17180
aI17200
aI17220
aI17240
aI17260
aI17280
aI17300
aI17320
aI17340
aI17360
aI17380
aI17400
aI17420
aI17440
aI17460
aI17480
aI17500
aI17520
aI17540
aI17560
aI17580
aI17600
aI17620
aI17640
aI17660
aI17680
aI17700
aI17720
aI17740
aI17760
aI17780
aI17800
aI17820
aI17840
aI17860
aI17880
aI17900
aI17920
aI17940
aI17960
aI17980
aI18000
aI18020
aI18040
aI18060
aI18080
aI18100
aI18120
aI18140
aI18160
aI18180
aI18200
aI18220
aI18240
aI18260
aI18280
aI18300
aI18320
aI18340
aI18360
aI18380
aI18400
aI18420
aI18440
aI18460
aI18480
aI18500
aI18520
aI18540
aI18560
aI18580
aI18600
aI18620
aI18640
aI18660
aI18680
aI18700
aI18720
aI18740
aI18760
aI18780
aI18800
aI18820
aI18840
aI18860
aI18880
aI18900
aI18920
aI18940
aI18960
aI18980
aI19000
aI19020
aI19040
aI19060
aI19080
aI19100
aI19120
aI19140
aI19160
aI19180
aI19200
aI19220
aI19240
aI19260
aI19280
aI19300
aI19320
aI19340
aI19360
aI19380
aI19400
aI19420
aI19440
aI19460
aI19480
aI19500
aI19520
aI19540
aI19560
aI19580
aI19600
aI19620
aI19640
aI19660
aI19680
aI19700
aI19720
aI19740
aI19760
aI19780
aI19800
aI19820
aI19840
aI19860
aI19880
aI19900
aI19920
aI19940
aI19960
aI19980
aI20000
aI20020
aI20040
aI20060
aI20080
aI20100
aI20120
aI20140
aI20160
aI20180
aI20200
aI20220
aI20240
aI20260
aI20280
aI20300
aI20320
aI20340
aI20360
aI20380
aI20400
aI20420
aI20440
aI20460
aI20480
aI20500
aI20520
aI20540
aI20560
aI20580
aI20600
aI20620
aI20640
aI20660
aI20680
aI20700
aI20720
aI20740
aI20760
aI20780
aI20800
aI20820
aI20840
aI20860
aI20880
aI20900
aI20920
aI20940
aI20960
aI20980
aI21000
aI21020
aI21040
aI21060
aI21080
aI21100
aI21120
aI21140
aI21160
aI21180
aI21200
aI21220
aI21240
aI21260
aI21280
aI21300
aI21320
aI21340
aI21360
aI21380
aI21400
aI21420
aI21440
aI21460
aI21480
aI21500
aI21520
aI21540
aI21560
aI21580
aI21600
aI21620
aI21640
aI21660
aI21680
aI21700
aI21720
aI21740
aI21760
aI21780
aI21800
aI21820
aI21840
aI21860
aI21880
aI21900
aI21920
aI21940
aI21960
aI21980
aI22000
aI22020
aI22040
aI22060
aI22080
aI22100
aI22120
aI22140
aI22160
aI22180
aI22200
aI22220
aI22240
aI22260
aI22280
aI22300
aI22320
aI22340
aI22360
aI22380
aI22400
aI22420
aI22440
aI22460
aI22480
aI22500
aI22520
aI22540
aI22560
aI22580
aI22600
aI22620
aI22640
aI22660
aI22680
aI22700
aI22720
aI22740
aI22760
aI22780
aI22800
aI22820
aI22840
aI22860
aI22880
aI22900
aI22920
aI22940
aI22960
aI22980
aI23000
a(lp4
F27064.299999999999
aF22725
aF14545.700000000001
aF20308.200000000001
aF13086.1
aF10838.700000000001
aF19387
aF15920.200000000001
aF10532.200000000001
aF21950.900000000001
aF18184.599999999999
aF7348.9499999999998
aF8929.3500000000004
aF9687.4599999999991
aF13883.9
aF9795.9400000000005
aF8996.8999999999996
aF15774.1
aF9546.7600000000002
aF14909.6
aF6403.3599999999997
aF13301.700000000001
aF14714.1
aF16474.299999999999
aF8594.2900000000009
aF7402.54
aF9835.7199999999993
aF10252.200000000001
aF8601.1299999999992
aF11693.799999999999
aF7981.8599999999997
aF11719.1
aF14832.4
aF13538.700000000001
aF8990.3199999999997
aF9777.1599999999999
aF9209.3700000000008
aF11260.9
aF10878.9
aF8077.25
aF7288.3500000000004
aF9100.3999999999996
aF11259.4
aF10789.4
aF10758.299999999999
aF13540.5
aF12426.6
aF9763.3400000000001
aF7120.54
aF7414.0500000000002
aF8941.0400000000009
aF14482.1
aF5631.0500000000002
aF12078.799999999999
aF13841.6
aF8902.6499999999996
aF5944.6000000000004
aF7298.0600000000004
aF7718.7600000000002
aF6599.1099999999997
aF19636
aF10572.200000000001
aF8773.6399999999994
aF8782.8999999999996
aF8491.4200000000001
aF11288.799999999999
aF9784.5900000000001
aF8600.7600000000002
aF12137.4
aF4049.8499999999999
aF8769.9899999999998
aF8274.2700000000004
aF12594.1
aF5911.4099999999999
aF8172.54
aF7936.4099999999999
aF4772.0900000000001
aF9318.1000000000004
aF7338.6099999999997
aF7212.9300000000003
aF6508.3900000000003
aF12044.9
aF9205.3700000000008
aF9498.4500000000007
aF8689.6900000000005
aF7196.4899999999998
aF7710.1599999999999
aF7305.4099999999999
aF6229.8599999999997
aF10012.299999999999
aF6117.4499999999998
aF12934
aF13005.700000000001
aF9366.5799999999999
aF6816.6099999999997
aF13726
aF9207.1800000000003
aF9813.7299999999996
aF5071.6000000000004
aF7424.3500000000004
aF7737.3800000000001
aF6643.1199999999999
aF8288.1900000000005
aF10394
aF6973.3699999999999
aF7311.8999999999996
aF4416.96
aF14190.4
aF7250.6400000000003
aF10152.299999999999
aF11029.1
aF4652.71
aF8345.3099999999995
aF10003.5
aF8434.3999999999996
aF14934.200000000001
aF9141.9799999999996
aF15859.5
aF9749.4099999999999
aF7491.3699999999999
aF8859.2000000000007
aF7054.1999999999998
aF8837.1800000000003
aF5161.46
aF8455.6900000000005
aF9392.3099999999995
aF7538.8500000000004
aF8458.2299999999996
aF10552.1
aF7426.6999999999998
aF11737
aF9787
aF6542.1099999999997
aF7499.9899999999998
aF10540.1
aF5377
aF10265.700000000001
aF8713.7099999999991
aF9157.0499999999993
aF7025.3299999999999
aF9664.6499999999996
aF7274.7399999999998
aF7671.3199999999997
aF10978.5
aF9915.1499999999996
aF8415.2800000000007
aF10692.4
aF8717.3700000000008
aF4608.1499999999996
aF7630.2200000000003
aF7041.8000000000002
aF6301.7399999999998
aF10921.299999999999
aF8915.8600000000006
aF7059.0100000000002
aF7525.6199999999999
aF10287.6
aF7503.3999999999996
aF6462.8100000000004
aF7464.4700000000003
aF8600.3700000000008
aF10729.200000000001
aF8180.9899999999998
aF10931.799999999999
aF10396.299999999999
aF10136.9
aF9862.0699999999997
aF8876.9699999999993
aF5846.4499999999998
aF6241.6899999999996
aF8754.2600000000002
aF6665.8800000000001
aF6878.6800000000003
aF7614.75
aF6520.2200000000003
aF5313.25
aF8761.3400000000001
aF5228.3699999999999
aF7700.04
aF8196.2000000000007
aF10464.4
aF10223
aF7670.3400000000001
aF12224.700000000001
aF10146.4
aF8096.1199999999999
aF5164.7600000000002
aF6654.4499999999998
aF9506.2800000000007
aF6956.3400000000001
aF5132.6499999999996
aF10122.4
aF11478.299999999999
aF7717.0100000000002
aF11092.299999999999
aF9498.4099999999999
aF7402.1300000000001
aF10073
aF8056.9200000000001
aF8590.9400000000005
aF6362.4799999999996
aF5531.8000000000002
aF18696.200000000001
aF12046
aF14282.799999999999
aF8020.0200000000004
aF5909.75
aF5845.7299999999996
aF9157.4899999999998
aF7988.5500000000002
aF9227.8600000000006
aF6655.0600000000004
aF12308.9
aF6031.9200000000001
aF8481.7299999999996
aF6751.7600000000002
aF7312.3199999999997
aF8675.4099999999999
aF4644.0100000000002
aF9052.6700000000001
aF7226.5500000000002
aF10113.299999999999
aF13603.6
aF5453.1099999999997
aF9517.4400000000005
aF5161.7299999999996
aF8689.6900000000005
aF12607.299999999999
aF6286.5799999999999
aF11412.6
aF7783.7600000000002
aF11132.700000000001
aF9015.3099999999995
aF7578.8800000000001
aF2946.4000000000001
aF9467.4899999999998
aF9584.6499999999996
aF8355.7900000000009
aF9837.3400000000001
aF6730
aF6821.8400000000001
aF10384.799999999999
aF11257.1
aF9530.9400000000005
aF8820.3400000000001
aF9680.8299999999999
aF9614.0499999999993
aF8133.2700000000004
aF6500.6800000000003
aF4728.0299999999997
aF8093.6400000000003
aF11217.1
aF6201.8900000000003
aF9745.8500000000004
aF8704.0900000000001
aF9979.7999999999993
aF9066.6599999999999
aF9133.3799999999992
aF8950.4899999999998
aF7307.7700000000004
aF7260.2700000000004
aF5862.9899999999998
aF10247.1
aF6183.6000000000004
aF4121.79
aF7001.3800000000001
aF7522.8100000000004
aF9726.2600000000002
aF7191.71
aF8813.5900000000001
aF8984.6499999999996
aF9161.2800000000007
aF5993.9799999999996
aF4638.1000000000004
aF9236.1299999999992
aF5832.9200000000001
aF9303.8999999999996
aF8324
aF7607.5
aF7409.8299999999999
aF6631.1800000000003
aF7930.79
aF6728.8599999999997
aF10791.9
aF7416.3000000000002
aF7261.3599999999997
aF6371.1300000000001
aF10435
aF6898.4700000000003
aF8239.6100000000006
aF9672.3799999999992
aF7674.6300000000001
aF6647.5699999999997
aF7406.9899999999998
aF6908.6199999999999
aF8403.8999999999996
aF12203.5
aF8372.6499999999996
aF8436.0400000000009
aF9664.5499999999993
aF12857.6
aF6138.2200000000003
aF7411.2399999999998
aF9557.1599999999999
aF6870.8599999999997
aF6338.8500000000004
aF9000.5900000000001
aF8362.5799999999999
aF6769.9899999999998
aF6464.9399999999996
aF9355.9400000000005
aF10667.1
aF6236.9099999999999
aF5872.3699999999999
aF6035.1499999999996
aF5993.3699999999999
aF8987.1700000000001
aF7023.8999999999996
aF9148.6800000000003
aF6980.8299999999999
aF6377.54
aF9152.7600000000002
aF9410.3400000000001
aF7506
aF7908.8299999999999
aF7351.7700000000004
aF9036.5200000000004
aF6333.8599999999997
aF6367.3699999999999
aF7229.3599999999997
aF15442.4
aF6979.8500000000004
aF10583.6
aF8840.7399999999998
aF6647.8900000000003
aF7991.0699999999997
aF6560.6199999999999
aF5681.8599999999997
aF5101.2200000000003
aF5021.75
aF4820.9799999999996
aF8672.4400000000005
aF7620.7200000000003
aF9776.3099999999995
aF8018.0799999999999
aF9376.8299999999999
aF6934.1700000000001
aF7982.96
aF9703.7000000000007
aF9680.6000000000004
aF7729.8299999999999
aF7695.25
aF8686.6499999999996
aF2855.1199999999999
aF7219.5799999999999
aF7230.8000000000002
aF8186.5200000000004
aF8806.3799999999992
aF7987.3199999999997
aF11645.700000000001
aF5298.4499999999998
aF6735.2200000000003
aF7545.4799999999996
aF6304.6099999999997
aF8021.1599999999999
aF5658.1800000000003
aF8742.9200000000001
aF8471.2099999999991
aF5695.6400000000003
aF6532.2600000000002
aF5666.5799999999999
aF8705.6200000000008
aF7947.9099999999999
aF6290.6800000000003
aF8155.6400000000003
aF5780.3900000000003
aF13198.5
aF6470.1700000000001
aF7797.3400000000001
aF7499
aF6381.8400000000001
aF5522.7600000000002
aF11299.5
aF10919.6
aF6721.5200000000004
aF6616.4399999999996
aF6983.8900000000003
aF7958.7200000000003
aF6766.1400000000003
aF6709
aF10338.4
aF7144.4399999999996
aF7435.1099999999997
aF9979.5799999999999
aF6674.4399999999996
aF8789.4400000000005
aF5459.5699999999997
aF8993.9200000000001
aF4120.7799999999997
aF9133.3999999999996
aF6746.9399999999996
aF5401.3599999999997
aF6463.3100000000004
aF6703.9300000000003
aF6107.6700000000001
aF7906.6400000000003
aF6567.0799999999999
aF6729.4499999999998
aF7917.25
aF5228.4700000000003
aF10577.5
aF12913.1
aF8426.3600000000006
aF4849.0900000000001
aF5711.8699999999999
aF5468.5100000000002
aF11894.200000000001
aF7730.1899999999996
aF7725.8599999999997
aF12297.200000000001
aF9728.0300000000007
aF5175
aF5996.4200000000001
aF2833.9200000000001
aF8654.3400000000001
aF8119.21
aF8106.9799999999996
aF5943.0100000000002
aF10002
aF8171.2299999999996
aF6273.4300000000003
aF6102.3599999999997
aF7781.0699999999997
aF10394.200000000001
aF6780.3400000000001
aF7775.0600000000004
aF6027.7600000000002
aF8503.1000000000004
aF9438.0200000000004
aF9566.7399999999998
aF10259.1
aF7354.5100000000002
aF6574.1199999999999
aF6956.1800000000003
aF6761.8699999999999
aF3872.1500000000001
aF5975.3299999999999
aF11598.5
aF9317.9300000000003
aF6372.8199999999997
aF7199.1599999999999
aF7440.8900000000003
aF5433.4300000000003
aF8936.1200000000008
aF7889.7200000000003
aF8229.8799999999992
aF6734.6199999999999
aF4988.8800000000001
aF6866.8599999999997
aF11055.799999999999
aF7020.9200000000001
aF10011.299999999999
aF8746.5
aF7931.54
aF7390.4899999999998
aF7766.25
aF5790.7700000000004
aF7298.5299999999997
aF7564.1999999999998
aF8754.3400000000001
aF8962.3199999999997
aF8295.3899999999994
aF5926.3000000000002
aF6023.4700000000003
aF8479.0300000000007
aF9393.4699999999993
aF6967.1000000000004
aF8303.0100000000002
aF7510.1099999999997
aF8458.8199999999997
aF7664.9799999999996
aF7368.21
aF9221.1200000000008
aF7766.3599999999997
aF5837.1099999999997
aF7727.7700000000004
aF7191.3100000000004
aF6057.1700000000001
aF8733.5
aF5564.4300000000003
aF6074.96
aF8670.5499999999993
aF6014.0500000000002
aF9473.4500000000007
aF4872.6400000000003
aF5278.1700000000001
aF6409.8999999999996
aF5860.8500000000004
aF6817.1199999999999
aF9085.6800000000003
aF7189.1599999999999
aF3565.25
aF6884.3500000000004
aF7184.9200000000001
aF10279.700000000001
aF8273.4799999999996
aF7757.9799999999996
aF6315.2600000000002
aF8619.3099999999995
aF6528.79
aF6983.3999999999996
aF7065.3500000000004
aF3891.2600000000002
aF5158.1300000000001
aF8913.9200000000001
aF7001.6199999999999
aF7101.46
aF8539.8299999999999
aF6945.6400000000003
aF8655.3999999999996
aF13234.299999999999
aF11187.9
aF8726.1200000000008
aF6254
aF4328.4799999999996
aF8799.4699999999993
aF6185.6899999999996
aF9969.7600000000002
aF5452.3500000000004
aF6997.0100000000002
aF4796.3000000000002
aF8521.7900000000009
aF8167.9099999999999
aF5989.1800000000003
aF9607.7600000000002
aF5343.46
aF8241.1399999999994
aF6496.4700000000003
aF7108.96
aF6915.71
aF6837.7700000000004
aF5863.71
aF5798.1599999999999
aF7699.4399999999996
aF6586.8500000000004
aF7492.0299999999997
aF6693.46
aF8055.7600000000002
aF5831.2399999999998
aF8034.4300000000003
aF7178.1000000000004
aF7977.5500000000002
aF6407.8100000000004
aF6359.04
aF8229.4200000000001
aF7387.3400000000001
aF6857.1700000000001
aF6047.5900000000001
aF6351.8999999999996
aF10413.200000000001
aF5616.5900000000001
aF5459.2799999999997
aF5675.2700000000004
aF8894.8400000000001
aF10294
aF4814.3699999999999
aF4857.6099999999997
aF6599.46
aF4759.5900000000001
aF5963.6700000000001
aF7122.4700000000003
aF8784.1399999999994
aF4492.8900000000003
aF8704.8600000000006
aF6988.8199999999997
aF4127.5600000000004
aF6638.6199999999999
aF7702.6599999999999
aF4427.8900000000003
aF7694.4399999999996
aF4903.04
aF5881.3000000000002
aF5891.3199999999997
aF5224.1899999999996
aF3703.1900000000001
aF6205.8100000000004
aF7652.2799999999997
aF4933.5100000000002
aF4519.9799999999996
aF6387.2200000000003
aF6730.6000000000004
aF5115.5799999999999
aF4968.4899999999998
aF9409.4899999999998
aF8531.2900000000009
aF6468.5299999999997
aF6756.6199999999999
aF6808.6099999999997
aF6354.9200000000001
aF5659.1300000000001
aF10260
aF5639.7799999999997
aF7445.6599999999999
aF6281.8500000000004
aF9166.6200000000008
aF7294.0900000000001
aF5229.6400000000003
aF8778.3099999999995
aF8818.8700000000008
aF5192.7299999999996
aF7199.7399999999998
aF6867.0699999999997
aF8372.4400000000005
aF6772.6099999999997
aF7268.6599999999999
aF6753.9899999999998
aF5959.0900000000001
aF5540.9200000000001
aF6228.2600000000002
aF3864.1999999999998
aF7493.5500000000002
aF6346.8900000000003
aF7509.4300000000003
aF5095.3100000000004
aF6265.0900000000001
aF6350.4899999999998
aF7437.3999999999996
aF5324.6700000000001
aF7601.75
aF10000.1
aF5763.4300000000003
aF5275.4300000000003
aF7768.3699999999999
aF6880.6899999999996
aF6267.8299999999999
aF7799.4099999999999
aF5645.21
aF6329.8800000000001
aF6711.4499999999998
aF7621.2299999999996
aF4980.29
aF4263.2799999999997
aF9920.1000000000004
aF6597.9300000000003
aF5767.2600000000002
aF7213.9899999999998
aF8371.4400000000005
aF8100.5500000000002
aF8132.96
aF6838.0799999999999
aF9188.3299999999999
aF8050.46
aF5818.7200000000003
aF6986.8400000000001
aF3641.6399999999999
aF8822.4300000000003
aF9632.8700000000008
aF8473.6399999999994
aF7110.8599999999997
aF4739.04
aF7769.4700000000003
aF7905.0500000000002
aF8493.6200000000008
aF7366.2600000000002
aF6058.6599999999999
aF5198.4899999999998
aF5954.3999999999996
aF9298.0499999999993
aF7146.3699999999999
aF5031.21
aF6961.6400000000003
aF9623.3899999999994
aF7039.8500000000004
aF8289.5499999999993
aF5866.1899999999996
aF9564.5400000000009
aF6194.6899999999996
aF7706.3000000000002
aF8389
aF7095.0500000000002
aF9731.4200000000001
aF5903.0900000000001
aF7926.6300000000001
aF5499.6999999999998
aF4761.54
aF7282.21
aF9926.7199999999993
aF6282.5299999999997
aF5573.5100000000002
aF8019.2200000000003
aF7227.4300000000003
aF7522.9700000000003
aF5651.6700000000001
aF6091.2200000000003
aF5809.6099999999997
aF6958.6300000000001
aF6950.8199999999997
aF6631.1999999999998
aF8476.6700000000001
aF6831.3100000000004
aF9990.8799999999992
aF7808.9499999999998
aF6821.0900000000001
aF9608.25
aF4900.4700000000003
aF3895.96
aF7087.1700000000001
aF4596.9200000000001
aF5792.6099999999997
aF4311.2700000000004
aF7002.3299999999999
aF7316.75
aF9083.9300000000003
aF7318.6300000000001
aF6336.0600000000004
aF7466.1199999999999
aF5769.6700000000001
aF6666.4399999999996
aF8402.9899999999998
aF6122.6599999999999
aF6464.5799999999999
aF5892.8800000000001
aF6690.9099999999999
aF6807.46
aF8552.5200000000004
aF8847.5699999999997
aF4901.3299999999999
aF6139.25
aF7054.4700000000003
aF5838.5900000000001
aF6891.1099999999997
aF6641.3999999999996
aF5300.5
aF8519.4099999999999
aF10046.5
aF6581.0100000000002
aF7616.1099999999997
aF6513.7299999999996
aF6585.9399999999996
aF10906.700000000001
aF7370.2600000000002
aF7392
aF7956.2799999999997
aF7092.0699999999997
aF5756.5500000000002
aF6466.6999999999998
aF6021.4200000000001
aF9278.7900000000009
aF8270.7900000000009
aF6140.0299999999997
aF7186.0500000000002
aF7126.0100000000002
aF7319.6599999999999
aF8583.2900000000009
aF7951.2299999999996
aF7158.71
aF4720.5
aF4705.0699999999997
aF6701.6700000000001
aF6303.8500000000004
aF7211.3999999999996
aF8127.0500000000002
aF6673.1099999999997
aF9277.3500000000004
aF6642.2799999999997
aF7581.4099999999999
aF6075.3100000000004
aF6636.4300000000003
aF8979.1299999999992
aF12616
aF8974.5100000000002
aF5519.7399999999998
aF7673.8100000000004
aF6575.1000000000004
aF7213.04
aF12749.9
aF5858.5600000000004
aF6859.25
aF6182.1199999999999
aF7441.6499999999996
aF9498.8299999999999
aF7485
aF6466.8100000000004
aF6391.46
aF5844.3000000000002
aF3465.3600000000001
aF11095.1
aF5819.0600000000004
aF5615.4899999999998
aF6178.0600000000004
aF5624.9799999999996
aF9487.9899999999998
aF7074.25
aF7495.4700000000003
aF8050.0699999999997
aF7578.9300000000003
aF10607.700000000001
aF6300.3699999999999
aF8610.2399999999998
aF7543.9200000000001
aF6797.6000000000004
aF8093.71
aF4804.1499999999996
aF6852.4700000000003
aF8476.7700000000004
aF9902.6100000000006
aF6218.54
aF6632.9300000000003
aF9581.1100000000006
aF8328.3799999999992
aF5732.8100000000004
aF4297.21
aF11309.6
aF9227.0100000000002
aF6351.1899999999996
aF8228.5699999999997
aF6608.3999999999996
aF6810.4799999999996
aF7926.1400000000003
aF6664.75
aF3941.1700000000001
aF8891.3299999999999
aF6822.3699999999999
aF8680.5100000000002
aF6799.3299999999999
aF7965.75
aF4739.4700000000003
aF6752.7399999999998
aF5898.5699999999997
aF7002.2600000000002
aF3861.5300000000002
aF6958.6300000000001
aF8918.2900000000009
aF5892.3299999999999
aF6264.6400000000003
aF8855.3400000000001
aF5057.2200000000003
aF5537.4899999999998
aF9134.8299999999999
aF6499.2799999999997
aF8539.6800000000003
aF7116.5
aF6648.6099999999997
aF10285.9
aF7291.1999999999998
aF6093.1599999999999
aF4151.79
aF5954.75
aF5896.9899999999998
aF9603.1700000000001
aF8781.0200000000004
aF5060.9099999999999
aF7252.8000000000002
aF5655.7399999999998
aF4786.8999999999996
aF8449.5799999999999
aF7807.6099999999997
aF9240.6800000000003
aF6957.8699999999999
aF6883.8800000000001
aF6076.3900000000003
aF7487.3599999999997
aF4863.7799999999997
aF5663.3900000000003
aF5129.1700000000001
aF5054.1199999999999
aF7455.3199999999997
aF6175.96
aF8662.6100000000006
aF8861.6900000000005
aF9194.9699999999993
aF8696.3799999999992
aF7663.9200000000001
aF8450.9500000000007
aF5450.6400000000003
aF5787.8100000000004
aF6193.25
aF8174.2600000000002
aF6108.2200000000003
aF4989.5900000000001
aF6211.04
aF9328.8899999999994
aF7051.9099999999999
aF6674.4799999999996
aF9523.4899999999998
aF9254.1299999999992
aF8973.1399999999994
aF5646.6300000000001
aF6404.6099999999997
aF6452.5
aF6975.8199999999997
aF6624.1700000000001
aF7523.0699999999997
aF6637.3699999999999
aF8470.7700000000004
aF5766.6099999999997
aF7702.7200000000003
aF6440.6899999999996
aF6457.2200000000003
aF5134.9099999999999
aF7267.75
aF6840.2200000000003
aF7708.3100000000004
aF9003.5599999999995
aF4908.2399999999998
aF7833.0699999999997
aF8127.9099999999999
aF5126.6400000000003
aF6423.4399999999996
aF9626.1900000000005
aF6459.2399999999998
aF6889.1199999999999
aF5196.9499999999998
aF6750.25
aF7440.3699999999999
aF7882.3900000000003
aF8434.3999999999996
aF5615.0500000000002
aF5484.0100000000002
aF5774.29
aF7348.3199999999997
aF9722.2199999999993
aF6710.9300000000003
aF6875.0900000000001
aF6910.04
aF3763.1500000000001
aF4739.1800000000003
aF8079.8900000000003
aF4321.6700000000001
aF3472.0300000000002
aF8202.3500000000004
aF9061.8199999999997
aF8411.5799999999999
aF9688.7700000000004
aF5967.04
aF7605.1099999999997
aF5244.8400000000001
aF5412.1499999999996
aF5725.2799999999997
aF6991.1700000000001
aF5551.6899999999996
aF4574.9399999999996
aF8794.4599999999991
aF6488.4200000000001
aF5333.1599999999999
aF7625.3000000000002
aF6093.2299999999996
aF8659.6299999999992
aF7446.9700000000003
aF8333.6599999999999
aF7881.6700000000001
aF8601.6599999999999
aF6181.4099999999999
aF5942.8400000000001
aF7598.6300000000001
aF4784.25
aF5842.1400000000003
aF4891.4899999999998
aF6177.2299999999996
aF5621.6800000000003
aF9139.2099999999991
aF10004.200000000001
aF6107.5
aF6902.0200000000004
aF6135.7600000000002
aF8843.4400000000005
aF8658.6599999999999
aF6895.4099999999999
aF7559.1400000000003
aF5062.6800000000003
aF7291.8500000000004
aF5328.1099999999997
aF6295.71
aF5730.2299999999996
aF3718.3499999999999
aF6914.1899999999996
aF6922.04
aF6579.7799999999997
aF6319.54
aF5701.1199999999999
aF6227.4200000000001
aF6255.4899999999998
aF5353.7299999999996
aF5389.1999999999998
aF7350.5900000000001
aF10250.200000000001
aF5367.2299999999996
aF6454.7799999999997
aF8997.0900000000001
aF7305.8999999999996
aF6098.3199999999997
aF8001.4300000000003
aF5616.8100000000004
aF5431.7799999999997
aF6295.29
aF6755.9700000000003
aF9525.1499999999996
aF4271.4399999999996
aF5379.6300000000001
aF6826.46
aF5306.0299999999997
aF7302.2600000000002
aF9630.1800000000003
aF7510.1999999999998
aF10653.4
aF6474.0600000000004
aF6716.7399999999998
aF8475.6200000000008
aF4675.2700000000004
aF5672.3900000000003
aF10210.299999999999
aF7194.0299999999997
aF8649.6599999999999
aF9787.6399999999994
aF8044.1099999999997
aF6516.5600000000004
aF5806.21
aF8252.5300000000007
aF8417.3899999999994
aF6531.46
aF8359.5400000000009
aF7024.54
aF7251.8400000000001
aF5396.8900000000003
aF7834.7700000000004
aF6176.5900000000001
aF4649.9899999999998
aF7631.79
aF7290.8699999999999
aF4802.2200000000003
aF5299.5200000000004
aF3855.6999999999998
aF5634.71
aF7362.2299999999996
aF5588.8000000000002
aF8200.1399999999994
aF5424.5600000000004
aF9798.0599999999995
aF9092.7600000000002
aF5737.6999999999998
aF6932.5699999999997
aF7274.3100000000004
aF6193.6499999999996
aF7220.8100000000004
aF7435.2799999999997
aF5480.3100000000004
aF6465.4700000000003
aF6015.1999999999998
aF9236.9300000000003
aF6051.1300000000001
aF7188.7200000000003
aF5977.6499999999996
aF10024.700000000001
aF5581.6199999999999
aF6190.9099999999999
aF6392.6000000000004
aF10092.6
aF5455.0200000000004
aF4637.5200000000004
aF5358.46
aF4597.0900000000001
aF5912.1000000000004
aF6332.9499999999998
aF7156.5699999999997
aF5334.7299999999996
aF13477.700000000001
aF6608.6099999999997
aF7388.0600000000004
aF5212.8500000000004
aF5620.3400000000001
aF7135.0799999999999
aF7647.7399999999998
aF5046.1400000000003
aF5788.29
aF8026.8999999999996
aF9518.2700000000004
aF11326.4
aF6152.0900000000001
aF6308.6199999999999
aF6160.7700000000004
aF7174.6700000000001
aF4754.8900000000003
aF6805.4499999999998
aF6489.7600000000002
aF4981.5799999999999
aF7139.6099999999997
aF7845.8699999999999
aF5464.2399999999998
aF4757.0100000000002
aF5069.2200000000003
aF4251.8500000000004
aF6901.6300000000001
aF4465.3400000000001
aF6383.5299999999997
aF7073.3500000000004
aF8852
aF9409.1900000000005
aF7236.8900000000003
aF8396.8400000000001
aF5593.6000000000004
aF6997.1099999999997
aF10871
aF3598.1900000000001
aF6134.9899999999998
aF7070.0699999999997
aF7741.9499999999998
aF8116.9499999999998
aF6085.8100000000004
aF6769.4399999999996
aF7248.8999999999996
aF6690.8100000000004
aF6964.1800000000003
aF5881.3800000000001
aF8729.8999999999996
aF6200.4300000000003
aF7413.4099999999999
aF6745.1199999999999
aF10221
aF7874.0600000000004
aF5980.3400000000001
aF5840.8299999999999
aF8285.7099999999991
aF7274.9799999999996
aF6154.1800000000003
aF7552.6000000000004
aF6205.8599999999997
aF6561.8500000000004
aF7409.6499999999996
aF6054.6300000000001
aF7962.1999999999998
aF6272.2799999999997
aF7756.9799999999996
aF6550.9700000000003
aF6824.8999999999996
aF5957.3599999999997
aF5101.5500000000002
aF8680.2399999999998
aF8172.4300000000003
aF7244.46
aF8290.5400000000009
aF10556.5
aF6774.6300000000001
aF5192.4200000000001
aF5581.9200000000001
aF9047.8799999999992
aF6100.6199999999999
aF8657.4799999999996
aF5092.0299999999997
aF5231.5799999999999
aF7590.8599999999997
aF5122.6800000000003
atp5
s.