(dp1
S'TRAIN'
p2
((lp3
I0
aI20
aI40
aI60
aI80
aI100
aI120
aI140
aI160
aI180
aI200
aI220
aI240
aI260
aI280
aI300
aI320
aI340
aI360
aI380
aI400
aI420
aI440
aI460
aI480
aI500
aI520
aI540
aI560
aI580
aI600
aI620
aI640
aI660
aI680
aI700
aI720
aI740
aI760
aI780
aI800
aI820
aI840
aI860
aI880
aI900
aI920
aI940
aI960
aI980
aI1000
aI1020
aI1040
aI1060
aI1080
aI1100
aI1120
aI1140
aI1160
aI1180
aI1200
aI1220
aI1240
aI1260
aI1280
aI1300
aI1320
aI1340
aI1360
aI1380
aI1400
aI1420
aI1440
aI1460
aI1480
aI1500
aI1520
aI1540
aI1560
aI1580
aI1600
aI1620
aI1640
aI1660
aI1680
aI1700
aI1720
aI1740
aI1760
aI1780
aI1800
aI1820
aI1840
aI1860
aI1880
aI1900
aI1920
aI1940
aI1960
aI1980
aI2000
aI2020
aI2040
aI2060
aI2080
aI2100
aI2120
aI2140
aI2160
aI2180
aI2200
aI2220
aI2240
aI2260
aI2280
aI2300
aI2320
aI2340
aI2360
aI2380
aI2400
aI2420
aI2440
aI2460
aI2480
aI2500
aI2520
aI2540
aI2560
aI2580
aI2600
aI2620
aI2640
aI2660
aI2680
aI2700
aI2720
aI2740
aI2760
aI2780
aI2800
aI2820
aI2840
aI2860
aI2880
aI2900
aI2920
aI2940
aI2960
aI2980
aI3000
aI3020
aI3040
aI3060
aI3080
aI3100
aI3120
aI3140
aI3160
aI3180
aI3200
aI3220
aI3240
aI3260
aI3280
aI3300
aI3320
aI3340
aI3360
aI3380
aI3400
aI3420
aI3440
aI3460
aI3480
aI3500
aI3520
aI3540
aI3560
aI3580
aI3600
aI3620
aI3640
aI3660
aI3680
aI3700
aI3720
aI3740
aI3760
aI3780
aI3800
aI3820
aI3840
aI3860
aI3880
aI3900
aI3920
aI3940
aI3960
aI3980
aI4000
aI4020
aI4040
aI4060
aI4080
aI4100
aI4120
aI4140
aI4160
aI4180
aI4200
aI4220
aI4240
aI4260
aI4280
aI4300
aI4320
aI4340
aI4360
aI4380
aI4400
aI4420
aI4440
aI4460
aI4480
aI4500
aI4520
aI4540
aI4560
aI4580
aI4600
aI4620
aI4640
aI4660
aI4680
aI4700
aI4720
aI4740
aI4760
aI4780
aI4800
aI4820
aI4840
aI4860
aI4880
aI4900
aI4920
aI4940
aI4960
aI4980
aI5000
aI5020
aI5040
aI5060
aI5080
aI5100
aI5120
aI5140
aI5160
aI5180
aI5200
aI5220
aI5240
aI5260
aI5280
aI5300
aI5320
aI5340
aI5360
aI5380
aI5400
aI5420
aI5440
aI5460
aI5480
aI5500
aI5520
aI5540
aI5560
aI5580
aI5600
aI5620
aI5640
aI5660
aI5680
aI5700
aI5720
aI5740
aI5760
aI5780
aI5800
aI5820
aI5840
aI5860
aI5880
aI5900
aI5920
aI5940
aI5960
aI5980
aI6000
aI6020
aI6040
aI6060
aI6080
aI6100
aI6120
aI6140
aI6160
aI6180
aI6200
aI6220
aI6240
aI6260
aI6280
aI6300
aI6320
aI6340
aI6360
aI6380
aI6400
aI6420
aI6440
aI6460
aI6480
aI6500
aI6520
aI6540
aI6560
aI6580
aI6600
aI6620
aI6640
aI6660
aI6680
aI6700
aI6720
aI6740
aI6760
aI6780
aI6800
aI6820
aI6840
aI6860
aI6880
aI6900
aI6920
aI6940
aI6960
aI6980
aI7000
aI7020
aI7040
aI7060
aI7080
aI7100
aI7120
aI7140
aI7160
aI7180
aI7200
aI7220
aI7240
aI7260
aI7280
aI7300
aI7320
aI7340
aI7360
aI7380
aI7400
aI7420
aI7440
aI7460
aI7480
aI7500
aI7520
aI7540
aI7560
aI7580
aI7600
aI7620
aI7640
aI7660
aI7680
aI7700
aI7720
aI7740
aI7760
aI7780
aI7800
aI7820
aI7840
aI7860
aI7880
aI7900
aI7920
aI7940
aI7960
aI7980
aI8000
aI8020
aI8040
aI8060
aI8080
aI8100
aI8120
aI8140
aI8160
aI8180
aI8200
aI8220
aI8240
aI8260
aI8280
aI8300
aI8320
aI8340
aI8360
aI8380
aI8400
aI8420
aI8440
aI8460
aI8480
aI8500
aI8520
aI8540
aI8560
aI8580
aI8600
aI8620
aI8640
aI8660
aI8680
aI8700
aI8720
aI8740
aI8760
aI8780
aI8800
aI8820
aI8840
aI8860
aI8880
aI8900
aI8920
aI8940
aI8960
aI8980
aI9000
aI9020
aI9040
aI9060
aI9080
aI9100
aI9120
aI9140
aI9160
aI9180
aI9200
aI9220
aI9240
aI9260
aI9280
aI9300
aI9320
aI9340
aI9360
aI9380
aI9400
aI9420
aI9440
aI9460
aI9480
aI9500
aI9520
aI9540
aI9560
aI9580
aI9600
aI9620
aI9640
aI9660
aI9680
aI9700
aI9720
aI9740
aI9760
aI9780
aI9800
aI9820
aI9840
aI9860
aI9880
aI9900
aI9920
aI9940
aI9960
aI9980
aI10000
aI10020
aI10040
aI10060
aI10080
aI10100
aI10120
aI10140
aI10160
aI10180
aI10200
aI10220
aI10240
aI10260
aI10280
aI10300
aI10320
aI10340
aI10360
aI10380
aI10400
aI10420
aI10440
aI10460
aI10480
aI10500
aI10520
aI10540
aI10560
aI10580
aI10600
aI10620
aI10640
aI10660
aI10680
aI10700
aI10720
aI10740
aI10760
aI10780
aI10800
aI10820
aI10840
aI10860
aI10880
aI10900
aI10920
aI10940
aI10960
aI10980
aI11000
aI11020
aI11040
aI11060
aI11080
aI11100
aI11120
aI11140
aI11160
aI11180
aI11200
aI11220
aI11240
aI11260
aI11280
aI11300
aI11320
aI11340
aI11360
aI11380
aI11400
aI11420
aI11440
aI11460
aI11480
aI11500
aI11520
aI11540
aI11560
aI11580
aI11600
aI11620
aI11640
aI11660
aI11680
aI11700
aI11720
aI11740
aI11760
aI11780
aI11800
aI11820
aI11840
aI11860
aI11880
aI11900
aI11920
aI11940
aI11960
aI11980
aI12000
aI12020
aI12040
aI12060
aI12080
aI12100
aI12120
aI12140
aI12160
aI12180
aI12200
aI12220
aI12240
aI12260
aI12280
aI12300
aI12320
aI12340
aI12360
aI12380
aI12400
aI12420
aI12440
aI12460
aI12480
aI12500
aI12520
aI12540
aI12560
aI12580
aI12600
aI12620
aI12640
aI12660
aI12680
aI12700
aI12720
aI12740
aI12760
aI12780
aI12800
aI12820
aI12840
aI12860
aI12880
aI12900
aI12920
aI12940
aI12960
aI12980
aI13000
aI13020
aI13040
aI13060
aI13080
aI13100
aI13120
aI13140
aI13160
aI13180
aI13200
aI13220
aI13240
aI13260
aI13280
aI13300
aI13320
aI13340
aI13360
aI13380
aI13400
aI13420
aI13440
aI13460
aI13480
aI13500
aI13520
aI13540
aI13560
aI13580
aI13600
aI13620
aI13640
aI13660
aI13680
aI13700
aI13720
aI13740
aI13760
aI13780
aI13800
aI13820
aI13840
aI13860
aI13880
aI13900
aI13920
aI13940
aI13960
aI13980
aI14000
aI14020
aI14040
aI14060
aI14080
aI14100
aI14120
aI14140
aI14160
aI14180
aI14200
aI14220
aI14240
aI14260
aI14280
aI14300
aI14320
aI14340
aI14360
aI14380
aI14400
aI14420
aI14440
aI14460
aI14480
aI14500
aI14520
aI14540
aI14560
aI14580
aI14600
aI14620
aI14640
aI14660
aI14680
aI14700
aI14720
aI14740
aI14760
aI14780
aI14800
aI14820
aI14840
aI14860
aI14880
aI14900
aI14920
aI14940
aI14960
aI14980
aI15000
aI15020
aI15040
aI15060
aI15080
aI15100
aI15120
aI15140
aI15160
aI15180
aI15200
aI15220
aI15240
aI15260
aI15280
aI15300
aI15320
aI15340
aI15360
aI15380
aI15400
aI15420
aI15440
aI15460
aI15480
aI15500
aI15520
aI15540
aI15560
aI15580
aI15600
aI15620
aI15640
aI15660
aI15680
aI15700
aI15720
aI15740
aI15760
aI15780
aI15800
aI15820
aI15840
aI15860
aI15880
aI15900
aI15920
aI15940
aI15960
aI15980
aI16000
aI16020
aI16040
aI16060
aI16080
aI16100
aI16120
aI16140
aI16160
aI16180
aI16200
aI16220
aI16240
aI16260
aI16280
aI16300
aI16320
aI16340
aI16360
aI16380
aI16400
aI16420
aI16440
aI16460
aI16480
aI16500
aI16520
aI16540
aI16560
aI16580
aI16600
aI16620
aI16640
aI16660
aI16680
aI16700
aI16720
aI16740
aI16760
aI16780
aI16800
aI16820
aI16840
aI16860
aI16880
aI16900
aI16920
aI16940
aI16960
aI16980
aI17000
aI17020
aI17040
aI17060
aI17080
aI17100
aI17120
aI17140
aI17160
aI17180
aI17200
aI17220
aI17240
aI17260
aI17280
aI17300
aI17320
aI17340
aI17360
aI17380
aI17400
aI17420
aI17440
aI17460
aI17480
aI17500
aI17520
aI17540
aI17560
aI17580
aI17600
aI17620
aI17640
aI17660
aI17680
aI17700
aI17720
aI17740
aI17760
aI17780
aI17800
aI17820
aI17840
aI17860
aI17880
aI17900
aI17920
aI17940
aI17960
aI17980
aI18000
aI18020
aI18040
aI18060
aI18080
aI18100
aI18120
aI18140
aI18160
aI18180
aI18200
aI18220
aI18240
aI18260
aI18280
aI18300
aI18320
aI18340
aI18360
aI18380
aI18400
aI18420
aI18440
aI18460
aI18480
aI18500
aI18520
aI18540
aI18560
aI18580
aI18600
aI18620
aI18640
aI18660
aI18680
aI18700
aI18720
aI18740
aI18760
aI18780
aI18800
aI18820
aI18840
aI18860
aI18880
aI18900
aI18920
aI18940
aI18960
aI18980
aI19000
aI19020
aI19040
aI19060
aI19080
aI19100
aI19120
aI19140
aI19160
aI19180
aI19200
aI19220
aI19240
aI19260
aI19280
aI19300
aI19320
aI19340
aI19360
aI19380
aI19400
aI19420
aI19440
aI19460
aI19480
aI19500
aI19520
aI19540
aI19560
aI19580
aI19600
aI19620
aI19640
aI19660
aI19680
aI19700
aI19720
aI19740
aI19760
aI19780
aI19800
aI19820
aI19840
aI19860
aI19880
aI19900
aI19920
aI19940
aI19960
aI19980
aI20000
aI20020
aI20040
aI20060
aI20080
aI20100
aI20120
aI20140
aI20160
aI20180
aI20200
aI20220
aI20240
aI20260
aI20280
aI20300
aI20320
aI20340
aI20360
aI20380
aI20400
aI20420
aI20440
aI20460
aI20480
aI20500
aI20520
aI20540
aI20560
aI20580
aI20600
aI20620
aI20640
aI20660
aI20680
aI20700
aI20720
aI20740
aI20760
aI20780
aI20800
aI20820
aI20840
aI20860
aI20880
aI20900
aI20920
aI20940
aI20960
aI20980
aI21000
aI21020
aI21040
aI21060
aI21080
aI21100
aI21120
aI21140
aI21160
aI21180
aI21200
aI21220
aI21240
aI21260
aI21280
aI21300
aI21320
aI21340
aI21360
aI21380
aI21400
aI21420
aI21440
aI21460
aI21480
aI21500
aI21520
aI21540
aI21560
aI21580
aI21600
aI21620
aI21640
aI21660
aI21680
aI21700
aI21720
aI21740
aI21760
aI21780
aI21800
aI21820
aI21840
aI21860
aI21880
aI21900
aI21920
aI21940
aI21960
aI21980
aI22000
aI22020
aI22040
aI22060
aI22080
aI22100
aI22120
aI22140
aI22160
aI22180
aI22200
aI22220
aI22240
aI22260
aI22280
aI22300
aI22320
aI22340
aI22360
aI22380
aI22400
aI22420
aI22440
aI22460
aI22480
aI22500
aI22520
aI22540
aI22560
aI22580
aI22600
aI22620
aI22640
aI22660
aI22680
aI22700
aI22720
aI22740
aI22760
aI22780
aI22800
aI22820
aI22840
aI22860
aI22880
aI22900
aI22920
aI22940
aI22960
aI22980
aI23000
aI23020
aI23040
aI23060
aI23080
aI23100
aI23120
aI23140
aI23160
aI23180
aI23200
aI23220
aI23240
aI23260
aI23280
aI23300
aI23320
aI23340
aI23360
aI23380
aI23400
aI23420
aI23440
aI23460
aI23480
aI23500
aI23520
aI23540
aI23560
aI23580
aI23600
aI23620
aI23640
aI23660
aI23680
aI23700
aI23720
aI23740
aI23760
aI23780
aI23800
aI23820
aI23840
aI23860
aI23880
aI23900
aI23920
aI23940
aI23960
aI23980
aI24000
aI24020
aI24040
aI24060
aI24080
aI24100
aI24120
aI24140
aI24160
aI24180
aI24200
aI24220
aI24240
aI24260
aI24280
aI24300
aI24320
aI24340
aI24360
aI24380
aI24400
aI24420
aI24440
aI24460
aI24480
aI24500
aI24520
aI24540
aI24560
aI24580
aI24600
aI24620
aI24640
aI24660
aI24680
aI24700
aI24720
aI24740
aI24760
aI24780
aI24800
aI24820
aI24840
aI24860
aI24880
aI24900
aI24920
aI24940
aI24960
aI24980
aI25000
aI25020
aI25040
aI25060
aI25080
aI25100
aI25120
aI25140
aI25160
aI25180
aI25200
aI25220
aI25240
aI25260
aI25280
aI25300
aI25320
aI25340
aI25360
aI25380
aI25400
aI25420
aI25440
aI25460
aI25480
aI25500
aI25520
aI25540
aI25560
aI25580
aI25600
aI25620
aI25640
aI25660
aI25680
aI25700
aI25720
aI25740
aI25760
aI25780
aI25800
aI25820
aI25840
aI25860
aI25880
aI25900
aI25920
aI25940
aI25960
aI25980
aI26000
aI26020
aI26040
aI26060
aI26080
aI26100
aI26120
aI26140
aI26160
aI26180
aI26200
aI26220
aI26240
aI26260
aI26280
aI26300
aI26320
aI26340
aI26360
aI26380
aI26400
aI26420
aI26440
aI26460
aI26480
aI26500
aI26520
aI26540
aI26560
aI26580
aI26600
aI26620
aI26640
aI26660
aI26680
aI26700
aI26720
aI26740
aI26760
aI26780
aI26800
aI26820
aI26840
aI26860
aI26880
aI26900
aI26920
aI26940
aI26960
aI26980
aI27000
aI27020
aI27040
aI27060
aI27080
aI27100
aI27120
aI27140
aI27160
aI27180
aI27200
aI27220
aI27240
aI27260
aI27280
aI27300
aI27320
aI27340
aI27360
aI27380
aI27400
aI27420
aI27440
aI27460
aI27480
aI27500
aI27520
aI27540
aI27560
aI27580
aI27600
aI27620
aI27640
aI27660
aI27680
aI27700
aI27720
aI27740
aI27760
aI27780
aI27800
aI27820
aI27840
aI27860
aI27880
aI27900
aI27920
aI27940
aI27960
aI27980
aI28000
aI28020
aI28040
aI28060
aI28080
aI28100
aI28120
aI28140
aI28160
aI28180
aI28200
aI28220
aI28240
aI28260
aI28280
aI28300
aI28320
aI28340
aI28360
aI28380
aI28400
aI28420
aI28440
aI28460
aI28480
aI28500
aI28520
aI28540
aI28560
aI28580
aI28600
aI28620
aI28640
aI28660
aI28680
aI28700
aI28720
aI28740
aI28760
aI28780
aI28800
aI28820
aI28840
aI28860
aI28880
aI28900
aI28920
aI28940
aI28960
aI28980
aI29000
aI29020
aI29040
aI29060
aI29080
aI29100
aI29120
aI29140
aI29160
aI29180
aI29200
aI29220
aI29240
aI29260
aI29280
aI29300
aI29320
aI29340
aI29360
aI29380
aI29400
aI29420
aI29440
aI29460
aI29480
aI29500
aI29520
aI29540
aI29560
aI29580
aI29600
aI29620
aI29640
aI29660
aI29680
aI29700
aI29720
aI29740
aI29760
aI29780
aI29800
aI29820
aI29840
aI29860
aI29880
aI29900
aI29920
aI29940
aI29960
aI29980
aI30000
aI30020
aI30040
aI30060
aI30080
aI30100
aI30120
aI30140
aI30160
aI30180
aI30200
aI30220
aI30240
aI30260
aI30280
aI30300
aI30320
aI30340
aI30360
aI30380
aI30400
aI30420
aI30440
aI30460
aI30480
aI30500
aI30520
aI30540
aI30560
aI30580
aI30600
aI30620
aI30640
aI30660
aI30680
aI30700
aI30720
aI30740
aI30760
aI30780
aI30800
aI30820
aI30840
aI30860
aI30880
aI30900
aI30920
aI30940
aI30960
aI30980
aI31000
aI31020
aI31040
aI31060
aI31080
aI31100
aI31120
aI31140
aI31160
aI31180
aI31200
aI31220
aI31240
aI31260
aI31280
aI31300
aI31320
aI31340
aI31360
aI31380
aI31400
aI31420
aI31440
aI31460
aI31480
aI31500
aI31520
aI31540
aI31560
aI31580
aI31600
aI31620
aI31640
aI31660
aI31680
aI31700
aI31720
aI31740
aI31760
aI31780
aI31800
aI31820
aI31840
aI31860
aI31880
aI31900
aI31920
aI31940
aI31960
aI31980
aI32000
aI32020
aI32040
aI32060
aI32080
aI32100
aI32120
aI32140
aI32160
aI32180
aI32200
aI32220
aI32240
aI32260
aI32280
aI32300
aI32320
aI32340
aI32360
aI32380
aI32400
aI32420
aI32440
aI32460
aI32480
aI32500
aI32520
aI32540
aI32560
aI32580
aI32600
aI32620
aI32640
aI32660
aI32680
aI32700
aI32720
aI32740
aI32760
aI32780
aI32800
aI32820
aI32840
aI32860
aI32880
aI32900
aI32920
aI32940
aI32960
aI32980
aI33000
aI33020
aI33040
aI33060
aI33080
aI33100
aI33120
aI33140
aI33160
aI33180
aI33200
aI33220
aI33240
aI33260
aI33280
aI33300
aI33320
aI33340
aI33360
aI33380
aI33400
aI33420
aI33440
aI33460
aI33480
aI33500
aI33520
aI33540
aI33560
aI33580
aI33600
aI33620
aI33640
aI33660
aI33680
aI33700
aI33720
aI33740
aI33760
aI33780
aI33800
aI33820
aI33840
aI33860
aI33880
aI33900
aI33920
aI33940
aI33960
aI33980
aI34000
aI34020
aI34040
aI34060
aI34080
aI34100
aI34120
aI34140
aI34160
aI34180
aI34200
aI34220
aI34240
aI34260
aI34280
aI34300
aI34320
aI34340
aI34360
aI34380
aI34400
aI34420
aI34440
aI34460
aI34480
aI34500
aI34520
aI34540
aI34560
aI34580
aI34600
aI34620
aI34640
aI34660
aI34680
aI34700
aI34720
aI34740
aI34760
aI34780
aI34800
aI34820
aI34840
aI34860
aI34880
aI34900
aI34920
aI34940
aI34960
aI34980
aI35000
aI35020
aI35040
aI35060
aI35080
aI35100
aI35120
aI35140
aI35160
aI35180
aI35200
aI35220
aI35240
aI35260
aI35280
aI35300
aI35320
aI35340
aI35360
aI35380
aI35400
aI35420
aI35440
aI35460
aI35480
aI35500
aI35520
aI35540
aI35560
aI35580
aI35600
aI35620
aI35640
aI35660
aI35680
aI35700
aI35720
aI35740
aI35760
aI35780
aI35800
aI35820
aI35840
aI35860
aI35880
aI35900
aI35920
aI35940
aI35960
aI35980
aI36000
aI36020
aI36040
aI36060
aI36080
aI36100
aI36120
aI36140
aI36160
aI36180
aI36200
aI36220
aI36240
aI36260
aI36280
aI36300
aI36320
aI36340
aI36360
aI36380
aI36400
aI36420
aI36440
aI36460
aI36480
aI36500
aI36520
aI36540
aI36560
aI36580
aI36600
aI36620
aI36640
aI36660
aI36680
aI36700
aI36720
aI36740
aI36760
aI36780
aI36800
aI36820
aI36840
aI36860
aI36880
aI36900
aI36920
aI36940
aI36960
aI36980
aI37000
aI37020
aI37040
aI37060
aI37080
aI37100
aI37120
aI37140
aI37160
aI37180
aI37200
aI37220
aI37240
aI37260
aI37280
aI37300
aI37320
aI37340
aI37360
aI37380
aI37400
aI37420
aI37440
aI37460
aI37480
aI37500
aI37520
aI37540
aI37560
aI37580
aI37600
aI37620
aI37640
aI37660
aI37680
aI37700
aI37720
aI37740
aI37760
aI37780
aI37800
aI37820
aI37840
aI37860
aI37880
aI37900
aI37920
aI37940
aI37960
aI37980
aI38000
aI38020
aI38040
aI38060
aI38080
aI38100
aI38120
aI38140
aI38160
aI38180
aI38200
aI38220
aI38240
aI38260
aI38280
aI38300
aI38320
aI38340
aI38360
aI38380
aI38400
aI38420
aI38440
aI38460
aI38480
aI38500
aI38520
aI38540
aI38560
aI38580
aI38600
aI38620
aI38640
aI38660
aI38680
aI38700
aI38720
aI38740
aI38760
aI38780
aI38800
aI38820
aI38840
aI38860
aI38880
aI38900
aI38920
aI38940
aI38960
aI38980
aI39000
aI39020
aI39040
aI39060
aI39080
aI39100
aI39120
aI39140
aI39160
aI39180
aI39200
aI39220
aI39240
aI39260
aI39280
aI39300
aI39320
aI39340
aI39360
aI39380
aI39400
aI39420
aI39440
aI39460
aI39480
aI39500
aI39520
aI39540
aI39560
aI39580
aI39600
aI39620
aI39640
aI39660
aI39680
aI39700
aI39720
aI39740
aI39760
aI39780
aI39800
aI39820
aI39840
aI39860
aI39880
aI39900
aI39920
aI39940
aI39960
aI39980
aI40000
aI40020
aI40040
aI40060
aI40080
aI40100
aI40120
aI40140
aI40160
aI40180
aI40200
aI40220
aI40240
aI40260
aI40280
aI40300
aI40320
aI40340
aI40360
aI40380
aI40400
aI40420
aI40440
aI40460
aI40480
aI40500
aI40520
aI40540
aI40560
aI40580
aI40600
aI40620
aI40640
aI40660
aI40680
aI40700
aI40720
aI40740
aI40760
aI40780
aI40800
aI40820
aI40840
aI40860
aI40880
aI40900
aI40920
aI40940
aI40960
aI40980
aI41000
aI41020
aI41040
aI41060
aI41080
aI41100
aI41120
aI41140
aI41160
aI41180
aI41200
aI41220
aI41240
aI41260
aI41280
aI41300
aI41320
aI41340
aI41360
aI41380
aI41400
aI41420
aI41440
aI41460
aI41480
aI41500
aI41520
aI41540
aI41560
aI41580
aI41600
aI41620
aI41640
aI41660
aI41680
aI41700
aI41720
aI41740
aI41760
aI41780
aI41800
aI41820
aI41840
aI41860
aI41880
aI41900
aI41920
aI41940
aI41960
aI41980
aI42000
aI42020
aI42040
aI42060
aI42080
aI42100
aI42120
aI42140
aI42160
aI42180
aI42200
aI42220
aI42240
aI42260
aI42280
aI42300
aI42320
aI42340
aI42360
aI42380
aI42400
aI42420
aI42440
aI42460
aI42480
aI42500
aI42520
aI42540
aI42560
aI42580
aI42600
aI42620
aI42640
aI42660
aI42680
aI42700
aI42720
aI42740
aI42760
aI42780
aI42800
aI42820
aI42840
aI42860
aI42880
aI42900
aI42920
aI42940
aI42960
aI42980
aI43000
aI43020
aI43040
aI43060
aI43080
aI43100
aI43120
aI43140
aI43160
aI43180
aI43200
aI43220
aI43240
aI43260
aI43280
aI43300
aI43320
aI43340
aI43360
aI43380
aI43400
aI43420
aI43440
aI43460
aI43480
aI43500
aI43520
aI43540
aI43560
aI43580
aI43600
aI43620
aI43640
aI43660
aI43680
aI43700
aI43720
aI43740
aI43760
aI43780
aI43800
aI43820
aI43840
aI43860
aI43880
aI43900
aI43920
aI43940
aI43960
aI43980
aI44000
aI44020
aI44040
aI44060
aI44080
aI44100
aI44120
aI44140
aI44160
aI44180
aI44200
aI44220
aI44240
aI44260
aI44280
aI44300
aI44320
aI44340
aI44360
aI44380
aI44400
aI44420
aI44440
aI44460
aI44480
aI44500
aI44520
aI44540
aI44560
aI44580
aI44600
aI44620
aI44640
aI44660
aI44680
aI44700
aI44720
aI44740
aI44760
aI44780
aI44800
aI44820
aI44840
aI44860
aI44880
aI44900
aI44920
aI44940
aI44960
aI44980
aI45000
aI45020
aI45040
aI45060
aI45080
aI45100
aI45120
aI45140
aI45160
aI45180
aI45200
aI45220
aI45240
aI45260
aI45280
aI45300
aI45320
aI45340
aI45360
aI45380
aI45400
aI45420
aI45440
aI45460
aI45480
aI45500
aI45520
aI45540
aI45560
aI45580
aI45600
aI45620
aI45640
aI45660
aI45680
aI45700
aI45720
aI45740
aI45760
aI45780
aI45800
aI45820
aI45840
aI45860
aI45880
aI45900
aI45920
aI45940
aI45960
aI45980
aI46000
aI46020
aI46040
aI46060
aI46080
aI46100
aI46120
aI46140
aI46160
aI46180
aI46200
aI46220
aI46240
aI46260
aI46280
aI46300
aI46320
aI46340
aI46360
aI46380
aI46400
aI46420
aI46440
aI46460
aI46480
aI46500
aI46520
aI46540
aI46560
aI46580
aI46600
aI46620
aI46640
aI46660
aI46680
aI46700
aI46720
aI46740
aI46760
aI46780
aI46800
aI46820
aI46840
aI46860
aI46880
aI46900
aI46920
aI46940
aI46960
aI46980
aI47000
aI47020
aI47040
aI47060
aI47080
aI47100
aI47120
aI47140
aI47160
aI47180
aI47200
aI47220
aI47240
aI47260
aI47280
aI47300
aI47320
aI47340
aI47360
aI47380
aI47400
aI47420
aI47440
aI47460
aI47480
aI47500
aI47520
aI47540
aI47560
aI47580
aI47600
aI47620
aI47640
aI47660
aI47680
aI47700
aI47720
aI47740
aI47760
aI47780
aI47800
aI47820
aI47840
aI47860
aI47880
aI47900
aI47920
aI47940
aI47960
aI47980
aI48000
aI48020
aI48040
aI48060
aI48080
aI48100
aI48120
aI48140
aI48160
aI48180
aI48200
aI48220
aI48240
aI48260
aI48280
aI48300
aI48320
aI48340
aI48360
aI48380
aI48400
aI48420
aI48440
aI48460
aI48480
aI48500
aI48520
aI48540
aI48560
aI48580
aI48600
aI48620
aI48640
aI48660
aI48680
aI48700
aI48720
aI48740
aI48760
aI48780
aI48800
aI48820
aI48840
aI48860
aI48880
aI48900
aI48920
aI48940
aI48960
aI48980
aI49000
aI49020
aI49040
aI49060
aI49080
aI49100
aI49120
aI49140
aI49160
aI49180
aI49200
aI49220
aI49240
aI49260
aI49280
aI49300
aI49320
aI49340
aI49360
aI49380
aI49400
aI49420
aI49440
aI49460
aI49480
aI49500
aI49520
aI49540
aI49560
aI49580
aI49600
aI49620
aI49640
aI49660
aI49680
aI49700
aI49720
aI49740
aI49760
aI49780
aI49800
aI49820
aI49840
aI49860
aI49880
aI49900
aI49920
aI49940
aI49960
aI49980
aI50000
aI50020
aI50040
aI50060
aI50080
aI50100
aI50120
aI50140
aI50160
aI50180
aI50200
aI50220
aI50240
aI50260
aI50280
aI50300
aI50320
aI50340
aI50360
aI50380
aI50400
aI50420
aI50440
aI50460
aI50480
aI50500
aI50520
aI50540
aI50560
aI50580
aI50600
aI50620
aI50640
aI50660
aI50680
aI50700
aI50720
aI50740
aI50760
aI50780
aI50800
aI50820
aI50840
aI50860
aI50880
aI50900
aI50920
aI50940
aI50960
aI50980
aI51000
aI51020
aI51040
aI51060
aI51080
aI51100
aI51120
aI51140
aI51160
aI51180
aI51200
aI51220
aI51240
aI51260
aI51280
aI51300
aI51320
aI51340
aI51360
aI51380
aI51400
aI51420
aI51440
aI51460
aI51480
aI51500
aI51520
aI51540
aI51560
aI51580
aI51600
aI51620
aI51640
aI51660
aI51680
aI51700
aI51720
aI51740
aI51760
aI51780
aI51800
aI51820
aI51840
aI51860
aI51880
aI51900
aI51920
aI51940
aI51960
aI51980
aI52000
aI52020
aI52040
aI52060
aI52080
aI52100
aI52120
aI52140
aI52160
aI52180
aI52200
aI52220
aI52240
aI52260
aI52280
aI52300
aI52320
aI52340
aI52360
aI52380
aI52400
aI52420
aI52440
aI52460
aI52480
aI52500
aI52520
aI52540
aI52560
aI52580
aI52600
aI52620
aI52640
aI52660
aI52680
aI52700
aI52720
aI52740
aI52760
aI52780
aI52800
aI52820
aI52840
aI52860
aI52880
aI52900
aI52920
aI52940
aI52960
aI52980
aI53000
aI53020
aI53040
aI53060
aI53080
aI53100
aI53120
aI53140
aI53160
aI53180
aI53200
aI53220
aI53240
aI53260
aI53280
aI53300
aI53320
aI53340
aI53360
aI53380
aI53400
aI53420
aI53440
aI53460
aI53480
aI53500
aI53520
aI53540
aI53560
aI53580
aI53600
aI53620
aI53640
aI53660
aI53680
aI53700
aI53720
aI53740
aI53760
aI53780
aI53800
aI53820
aI53840
aI53860
aI53880
aI53900
aI53920
aI53940
aI53960
aI53980
aI54000
aI54020
aI54040
aI54060
aI54080
aI54100
aI54120
aI54140
aI54160
aI54180
aI54200
aI54220
aI54240
aI54260
aI54280
aI54300
aI54320
aI54340
aI54360
aI54380
aI54400
aI54420
aI54440
aI54460
aI54480
aI54500
aI54520
aI54540
aI54560
aI54580
aI54600
aI54620
aI54640
aI54660
aI54680
aI54700
aI54720
aI54740
aI54760
aI54780
aI54800
aI54820
aI54840
aI54860
aI54880
aI54900
aI54920
aI54940
aI54960
aI54980
aI55000
aI55020
aI55040
aI55060
aI55080
aI55100
aI55120
aI55140
aI55160
aI55180
aI55200
aI55220
aI55240
aI55260
aI55280
aI55300
aI55320
aI55340
aI55360
aI55380
aI55400
aI55420
aI55440
aI55460
aI55480
aI55500
aI55520
aI55540
aI55560
aI55580
aI55600
aI55620
aI55640
aI55660
aI55680
aI55700
aI55720
aI55740
aI55760
aI55780
aI55800
aI55820
aI55840
aI55860
aI55880
aI55900
aI55920
aI55940
aI55960
aI55980
aI56000
aI56020
aI56040
aI56060
aI56080
aI56100
aI56120
aI56140
aI56160
aI56180
aI56200
aI56220
aI56240
aI56260
aI56280
aI56300
aI56320
aI56340
aI56360
aI56380
aI56400
aI56420
aI56440
aI56460
aI56480
aI56500
aI56520
aI56540
aI56560
aI56580
aI56600
aI56620
aI56640
aI56660
aI56680
aI56700
aI56720
aI56740
aI56760
aI56780
aI56800
aI56820
aI56840
aI56860
aI56880
aI56900
aI56920
aI56940
aI56960
aI56980
aI57000
aI57020
aI57040
aI57060
aI57080
aI57100
aI57120
aI57140
aI57160
aI57180
aI57200
aI57220
aI57240
aI57260
aI57280
aI57300
aI57320
aI57340
aI57360
aI57380
aI57400
aI57420
aI57440
aI57460
aI57480
aI57500
aI57520
aI57540
aI57560
aI57580
aI57600
aI57620
aI57640
aI57660
aI57680
aI57700
aI57720
aI57740
aI57760
aI57780
aI57800
aI57820
aI57840
aI57860
aI57880
aI57900
aI57920
aI57940
aI57960
aI57980
aI58000
aI58020
aI58040
aI58060
aI58080
aI58100
aI58120
aI58140
aI58160
aI58180
aI58200
aI58220
aI58240
aI58260
aI58280
aI58300
aI58320
aI58340
aI58360
aI58380
aI58400
aI58420
aI58440
aI58460
aI58480
aI58500
aI58520
aI58540
aI58560
aI58580
aI58600
aI58620
aI58640
aI58660
aI58680
aI58700
aI58720
aI58740
aI58760
aI58780
aI58800
aI58820
aI58840
aI58860
aI58880
aI58900
aI58920
aI58940
aI58960
aI58980
aI59000
aI59020
aI59040
aI59060
aI59080
aI59100
aI59120
aI59140
aI59160
aI59180
aI59200
aI59220
aI59240
aI59260
aI59280
aI59300
aI59320
aI59340
aI59360
aI59380
aI59400
aI59420
aI59440
aI59460
aI59480
aI59500
aI59520
aI59540
aI59560
aI59580
aI59600
aI59620
aI59640
aI59660
aI59680
aI59700
aI59720
aI59740
aI59760
aI59780
aI59800
aI59820
aI59840
aI59860
aI59880
aI59900
aI59920
aI59940
aI59960
aI59980
aI60000
aI60020
aI60040
aI60060
aI60080
aI60100
aI60120
aI60140
aI60160
aI60180
aI60200
aI60220
aI60240
aI60260
aI60280
aI60300
aI60320
aI60340
aI60360
aI60380
aI60400
aI60420
aI60440
aI60460
aI60480
aI60500
aI60520
aI60540
aI60560
aI60580
aI60600
aI60620
aI60640
aI60660
aI60680
aI60700
aI60720
aI60740
aI60760
aI60780
aI60800
aI60820
aI60840
aI60860
aI60880
aI60900
aI60920
aI60940
aI60960
aI60980
aI61000
aI61020
aI61040
aI61060
aI61080
aI61100
aI61120
aI61140
aI61160
aI61180
aI61200
aI61220
aI61240
aI61260
aI61280
aI61300
aI61320
aI61340
aI61360
aI61380
aI61400
aI61420
aI61440
aI61460
aI61480
aI61500
aI61520
aI61540
aI61560
aI61580
aI61600
aI61620
aI61640
aI61660
aI61680
aI61700
aI61720
aI61740
aI61760
aI61780
aI61800
aI61820
aI61840
aI61860
aI61880
aI61900
aI61920
aI61940
aI61960
aI61980
aI62000
aI62020
aI62040
aI62060
aI62080
aI62100
aI62120
aI62140
aI62160
aI62180
aI62200
aI62220
aI62240
aI62260
aI62280
aI62300
aI62320
aI62340
aI62360
aI62380
aI62400
aI62420
aI62440
aI62460
aI62480
aI62500
aI62520
aI62540
aI62560
aI62580
aI62600
aI62620
aI62640
aI62660
aI62680
aI62700
aI62720
aI62740
aI62760
aI62780
aI62800
aI62820
aI62840
aI62860
aI62880
aI62900
aI62920
aI62940
aI62960
aI62980
aI63000
aI63020
aI63040
aI63060
aI63080
aI63100
aI63120
aI63140
aI63160
aI63180
aI63200
aI63220
aI63240
aI63260
aI63280
aI63300
aI63320
aI63340
aI63360
aI63380
aI63400
aI63420
aI63440
aI63460
aI63480
aI63500
aI63520
aI63540
aI63560
aI63580
aI63600
aI63620
aI63640
aI63660
aI63680
aI63700
aI63720
aI63740
aI63760
aI63780
aI63800
aI63820
aI63840
aI63860
aI63880
aI63900
aI63920
aI63940
aI63960
aI63980
aI64000
aI64020
aI64040
aI64060
aI64080
aI64100
aI64120
aI64140
aI64160
aI64180
aI64200
aI64220
aI64240
aI64260
aI64280
aI64300
aI64320
aI64340
aI64360
aI64380
aI64400
aI64420
aI64440
aI64460
aI64480
aI64500
aI64520
aI64540
aI64560
aI64580
aI64600
aI64620
aI64640
aI64660
aI64680
aI64700
aI64720
aI64740
aI64760
aI64780
aI64800
aI64820
aI64840
aI64860
aI64880
aI64900
aI64920
aI64940
aI64960
aI64980
aI65000
aI65020
aI65040
aI65060
aI65080
aI65100
aI65120
aI65140
aI65160
aI65180
aI65200
aI65220
aI65240
aI65260
aI65280
aI65300
aI65320
aI65340
aI65360
aI65380
aI65400
aI65420
aI65440
aI65460
aI65480
aI65500
aI65520
aI65540
aI65560
aI65580
aI65600
aI65620
aI65640
aI65660
aI65680
aI65700
aI65720
aI65740
aI65760
aI65780
aI65800
aI65820
aI65840
aI65860
aI65880
aI65900
aI65920
aI65940
aI65960
aI65980
aI66000
aI66020
aI66040
aI66060
aI66080
aI66100
aI66120
aI66140
aI66160
aI66180
aI66200
aI66220
aI66240
aI66260
aI66280
aI66300
aI66320
aI66340
aI66360
aI66380
aI66400
aI66420
aI66440
aI66460
aI66480
aI66500
aI66520
aI66540
aI66560
aI66580
aI66600
aI66620
aI66640
aI66660
aI66680
aI66700
aI66720
aI66740
aI66760
aI66780
aI66800
aI66820
aI66840
aI66860
aI66880
aI66900
aI66920
aI66940
aI66960
aI66980
aI67000
aI67020
aI67040
aI67060
aI67080
aI67100
aI67120
aI67140
aI67160
aI67180
aI67200
aI67220
aI67240
aI67260
aI67280
aI67300
aI67320
aI67340
aI67360
aI67380
aI67400
aI67420
aI67440
aI67460
aI67480
aI67500
aI67520
aI67540
aI67560
aI67580
aI67600
aI67620
aI67640
aI67660
aI67680
aI67700
aI67720
aI67740
aI67760
aI67780
aI67800
aI67820
aI67840
aI67860
aI67880
aI67900
aI67920
aI67940
aI67960
aI67980
aI68000
aI68020
aI68040
aI68060
aI68080
aI68100
aI68120
aI68140
aI68160
aI68180
aI68200
aI68220
aI68240
aI68260
aI68280
aI68300
aI68320
aI68340
aI68360
aI68380
aI68400
aI68420
aI68440
aI68460
aI68480
aI68500
aI68520
aI68540
aI68560
aI68580
aI68600
aI68620
aI68640
aI68660
aI68680
aI68700
aI68720
aI68740
aI68760
aI68780
aI68800
aI68820
aI68840
aI68860
aI68880
aI68900
aI68920
aI68940
aI68960
aI68980
aI69000
aI69020
aI69040
aI69060
aI69080
aI69100
aI69120
aI69140
aI69160
aI69180
aI69200
aI69220
aI69240
aI69260
aI69280
aI69300
aI69320
aI69340
aI69360
aI69380
aI69400
aI69420
aI69440
aI69460
aI69480
aI69500
aI69520
aI69540
aI69560
aI69580
aI69600
aI69620
aI69640
aI69660
aI69680
aI69700
aI69720
aI69740
aI69760
aI69780
aI69800
aI69820
aI69840
aI69860
aI69880
aI69900
aI69920
aI69940
aI69960
aI69980
aI70000
aI70020
aI70040
aI70060
aI70080
aI70100
aI70120
aI70140
aI70160
aI70180
aI70200
aI70220
aI70240
aI70260
aI70280
aI70300
aI70320
aI70340
aI70360
aI70380
aI70400
aI70420
aI70440
aI70460
aI70480
aI70500
aI70520
aI70540
aI70560
aI70580
aI70600
aI70620
aI70640
aI70660
aI70680
aI70700
aI70720
aI70740
aI70760
aI70780
aI70800
aI70820
aI70840
aI70860
aI70880
aI70900
aI70920
aI70940
aI70960
aI70980
aI71000
aI71020
aI71040
aI71060
aI71080
aI71100
aI71120
aI71140
aI71160
aI71180
aI71200
aI71220
aI71240
aI71260
aI71280
aI71300
aI71320
aI71340
aI71360
aI71380
aI71400
aI71420
aI71440
aI71460
aI71480
aI71500
aI71520
aI71540
aI71560
aI71580
aI71600
aI71620
aI71640
aI71660
aI71680
aI71700
aI71720
aI71740
aI71760
aI71780
aI71800
aI71820
aI71840
aI71860
aI71880
aI71900
aI71920
aI71940
aI71960
aI71980
aI72000
aI72020
aI72040
aI72060
aI72080
aI72100
aI72120
aI72140
aI72160
aI72180
aI72200
aI72220
aI72240
aI72260
aI72280
aI72300
aI72320
aI72340
aI72360
aI72380
aI72400
aI72420
aI72440
aI72460
aI72480
aI72500
aI72520
aI72540
aI72560
aI72580
aI72600
aI72620
aI72640
aI72660
aI72680
aI72700
aI72720
aI72740
aI72760
aI72780
aI72800
aI72820
aI72840
aI72860
aI72880
aI72900
aI72920
aI72940
aI72960
aI72980
aI73000
aI73020
aI73040
aI73060
aI73080
aI73100
aI73120
aI73140
aI73160
aI73180
aI73200
aI73220
aI73240
aI73260
aI73280
aI73300
aI73320
aI73340
aI73360
aI73380
aI73400
aI73420
aI73440
aI73460
aI73480
aI73500
aI73520
aI73540
aI73560
aI73580
aI73600
aI73620
aI73640
aI73660
aI73680
aI73700
aI73720
aI73740
aI73760
aI73780
aI73800
aI73820
aI73840
aI73860
aI73880
aI73900
aI73920
aI73940
aI73960
aI73980
aI74000
aI74020
aI74040
aI74060
aI74080
aI74100
aI74120
aI74140
aI74160
aI74180
aI74200
aI74220
aI74240
aI74260
aI74280
aI74300
aI74320
aI74340
aI74360
aI74380
aI74400
aI74420
aI74440
aI74460
aI74480
aI74500
aI74520
aI74540
aI74560
aI74580
aI74600
aI74620
aI74640
aI74660
aI74680
aI74700
aI74720
aI74740
aI74760
aI74780
aI74800
aI74820
aI74840
aI74860
aI74880
aI74900
aI74920
aI74940
aI74960
aI74980
aI75000
aI75020
aI75040
aI75060
aI75080
aI75100
aI75120
aI75140
aI75160
aI75180
aI75200
aI75220
aI75240
aI75260
aI75280
aI75300
aI75320
aI75340
aI75360
aI75380
aI75400
aI75420
aI75440
aI75460
aI75480
aI75500
aI75520
aI75540
aI75560
aI75580
aI75600
aI75620
aI75640
aI75660
aI75680
aI75700
aI75720
aI75740
aI75760
aI75780
aI75800
aI75820
aI75840
aI75860
aI75880
aI75900
aI75920
aI75940
aI75960
aI75980
aI76000
aI76020
aI76040
aI76060
aI76080
aI76100
aI76120
aI76140
aI76160
aI76180
aI76200
aI76220
aI76240
aI76260
aI76280
aI76300
aI76320
aI76340
aI76360
aI76380
aI76400
aI76420
aI76440
aI76460
aI76480
aI76500
aI76520
aI76540
aI76560
aI76580
aI76600
aI76620
aI76640
aI76660
aI76680
aI76700
aI76720
aI76740
aI76760
aI76780
aI76800
aI76820
aI76840
aI76860
aI76880
aI76900
aI76920
aI76940
aI76960
aI76980
aI77000
aI77020
aI77040
aI77060
aI77080
aI77100
aI77120
aI77140
aI77160
aI77180
aI77200
aI77220
aI77240
aI77260
aI77280
aI77300
aI77320
aI77340
aI77360
aI77380
aI77400
aI77420
aI77440
aI77460
aI77480
aI77500
aI77520
aI77540
aI77560
aI77580
aI77600
aI77620
aI77640
aI77660
aI77680
aI77700
aI77720
aI77740
aI77760
aI77780
aI77800
aI77820
aI77840
aI77860
aI77880
aI77900
aI77920
aI77940
aI77960
aI77980
aI78000
aI78020
aI78040
aI78060
aI78080
aI78100
aI78120
aI78140
aI78160
aI78180
aI78200
aI78220
aI78240
aI78260
aI78280
aI78300
aI78320
aI78340
aI78360
aI78380
aI78400
aI78420
aI78440
aI78460
aI78480
aI78500
aI78520
aI78540
aI78560
aI78580
aI78600
aI78620
aI78640
aI78660
aI78680
aI78700
aI78720
aI78740
aI78760
aI78780
aI78800
aI78820
aI78840
aI78860
aI78880
aI78900
aI78920
aI78940
aI78960
aI78980
aI79000
aI79020
aI79040
aI79060
aI79080
aI79100
aI79120
aI79140
aI79160
aI79180
aI79200
aI79220
aI79240
aI79260
aI79280
aI79300
aI79320
aI79340
aI79360
aI79380
aI79400
aI79420
aI79440
aI79460
aI79480
aI79500
aI79520
aI79540
aI79560
aI79580
aI79600
aI79620
aI79640
aI79660
aI79680
aI79700
aI79720
aI79740
aI79760
aI79780
aI79800
aI79820
aI79840
aI79860
aI79880
aI79900
aI79920
aI79940
aI79960
aI79980
aI80000
aI80020
aI80040
aI80060
aI80080
aI80100
aI80120
aI80140
aI80160
aI80180
aI80200
aI80220
aI80240
aI80260
aI80280
aI80300
aI80320
aI80340
aI80360
aI80380
aI80400
aI80420
aI80440
aI80460
aI80480
aI80500
aI80520
aI80540
aI80560
aI80580
aI80600
aI80620
aI80640
aI80660
aI80680
aI80700
aI80720
aI80740
aI80760
aI80780
aI80800
aI80820
aI80840
aI80860
aI80880
aI80900
aI80920
aI80940
aI80960
aI80980
aI81000
aI81020
aI81040
aI81060
aI81080
aI81100
aI81120
aI81140
aI81160
aI81180
aI81200
aI81220
aI81240
aI81260
aI81280
aI81300
aI81320
aI81340
aI81360
aI81380
aI81400
aI81420
aI81440
aI81460
aI81480
aI81500
aI81520
aI81540
aI81560
aI81580
aI81600
aI81620
aI81640
aI81660
aI81680
aI81700
aI81720
aI81740
aI81760
aI81780
aI81800
aI81820
aI81840
aI81860
aI81880
aI81900
aI81920
aI81940
aI81960
aI81980
aI82000
aI82020
aI82040
aI82060
aI82080
aI82100
aI82120
aI82140
aI82160
aI82180
aI82200
aI82220
aI82240
aI82260
aI82280
aI82300
aI82320
aI82340
aI82360
aI82380
aI82400
aI82420
aI82440
aI82460
aI82480
aI82500
aI82520
aI82540
aI82560
aI82580
aI82600
aI82620
aI82640
aI82660
aI82680
aI82700
aI82720
aI82740
aI82760
aI82780
aI82800
aI82820
aI82840
aI82860
aI82880
aI82900
aI82920
aI82940
aI82960
aI82980
aI83000
aI83020
aI83040
aI83060
aI83080
aI83100
aI83120
aI83140
aI83160
aI83180
aI83200
aI83220
aI83240
aI83260
aI83280
aI83300
aI83320
aI83340
aI83360
aI83380
aI83400
aI83420
aI83440
aI83460
aI83480
aI83500
aI83520
aI83540
aI83560
aI83580
aI83600
aI83620
aI83640
aI83660
aI83680
aI83700
aI83720
aI83740
aI83760
aI83780
aI83800
aI83820
aI83840
aI83860
aI83880
aI83900
aI83920
aI83940
aI83960
aI83980
aI84000
aI84020
aI84040
aI84060
aI84080
aI84100
aI84120
aI84140
aI84160
aI84180
aI84200
aI84220
aI84240
aI84260
aI84280
aI84300
aI84320
aI84340
aI84360
aI84380
aI84400
aI84420
aI84440
aI84460
aI84480
aI84500
aI84520
aI84540
aI84560
aI84580
aI84600
aI84620
aI84640
aI84660
aI84680
aI84700
aI84720
aI84740
aI84760
aI84780
aI84800
aI84820
aI84840
aI84860
aI84880
aI84900
aI84920
aI84940
aI84960
aI84980
aI85000
aI85020
aI85040
aI85060
aI85080
aI85100
aI85120
aI85140
aI85160
aI85180
aI85200
aI85220
aI85240
aI85260
aI85280
aI85300
aI85320
aI85340
aI85360
aI85380
aI85400
aI85420
aI85440
aI85460
aI85480
aI85500
aI85520
aI85540
aI85560
aI85580
aI85600
aI85620
aI85640
aI85660
aI85680
aI85700
aI85720
aI85740
aI85760
aI85780
aI85800
aI85820
aI85840
aI85860
aI85880
aI85900
aI85920
aI85940
aI85960
aI85980
aI86000
aI86020
aI86040
aI86060
aI86080
aI86100
aI86120
aI86140
aI86160
aI86180
aI86200
aI86220
aI86240
aI86260
aI86280
aI86300
aI86320
aI86340
aI86360
aI86380
aI86400
aI86420
aI86440
aI86460
aI86480
aI86500
aI86520
aI86540
aI86560
aI86580
aI86600
aI86620
aI86640
aI86660
aI86680
aI86700
aI86720
aI86740
aI86760
aI86780
aI86800
aI86820
aI86840
aI86860
aI86880
aI86900
aI86920
aI86940
aI86960
aI86980
aI87000
aI87020
aI87040
aI87060
aI87080
aI87100
aI87120
aI87140
aI87160
aI87180
aI87200
aI87220
aI87240
aI87260
aI87280
aI87300
aI87320
aI87340
aI87360
aI87380
aI87400
aI87420
aI87440
aI87460
aI87480
aI87500
aI87520
aI87540
aI87560
aI87580
aI87600
aI87620
aI87640
aI87660
aI87680
aI87700
aI87720
aI87740
aI87760
aI87780
aI87800
aI87820
aI87840
aI87860
aI87880
aI87900
aI87920
aI87940
aI87960
aI87980
aI88000
aI88020
aI88040
aI88060
aI88080
aI88100
aI88120
aI88140
aI88160
aI88180
aI88200
aI88220
aI88240
aI88260
aI88280
aI88300
aI88320
aI88340
aI88360
aI88380
aI88400
aI88420
aI88440
aI88460
aI88480
aI88500
aI88520
aI88540
aI88560
aI88580
aI88600
aI88620
aI88640
aI88660
aI88680
aI88700
aI88720
aI88740
aI88760
aI88780
aI88800
aI88820
aI88840
aI88860
aI88880
aI88900
aI88920
aI88940
aI88960
aI88980
aI89000
aI89020
aI89040
aI89060
aI89080
aI89100
aI89120
aI89140
aI89160
aI89180
aI89200
aI89220
aI89240
aI89260
aI89280
aI89300
aI89320
aI89340
aI89360
aI89380
aI89400
aI89420
aI89440
aI89460
aI89480
aI89500
aI89520
aI89540
aI89560
aI89580
aI89600
aI89620
aI89640
aI89660
aI89680
aI89700
aI89720
aI89740
aI89760
aI89780
aI89800
aI89820
aI89840
aI89860
aI89880
aI89900
aI89920
aI89940
aI89960
aI89980
aI90000
aI90020
aI90040
aI90060
aI90080
aI90100
aI90120
aI90140
aI90160
aI90180
aI90200
aI90220
aI90240
aI90260
aI90280
aI90300
aI90320
aI90340
aI90360
aI90380
aI90400
aI90420
aI90440
aI90460
aI90480
aI90500
aI90520
aI90540
aI90560
aI90580
aI90600
aI90620
aI90640
aI90660
aI90680
aI90700
aI90720
aI90740
aI90760
aI90780
aI90800
aI90820
aI90840
aI90860
aI90880
aI90900
aI90920
aI90940
aI90960
aI90980
aI91000
aI91020
aI91040
aI91060
aI91080
aI91100
aI91120
aI91140
aI91160
aI91180
aI91200
aI91220
aI91240
aI91260
aI91280
aI91300
aI91320
aI91340
aI91360
aI91380
aI91400
aI91420
aI91440
aI91460
aI91480
aI91500
aI91520
aI91540
aI91560
aI91580
aI91600
aI91620
aI91640
aI91660
aI91680
aI91700
aI91720
aI91740
aI91760
aI91780
aI91800
aI91820
aI91840
aI91860
aI91880
aI91900
aI91920
aI91940
aI91960
aI91980
aI92000
aI92020
aI92040
aI92060
aI92080
aI92100
aI92120
aI92140
aI92160
aI92180
aI92200
aI92220
aI92240
aI92260
aI92280
aI92300
aI92320
aI92340
aI92360
aI92380
aI92400
aI92420
aI92440
aI92460
aI92480
aI92500
aI92520
aI92540
aI92560
aI92580
aI92600
aI92620
aI92640
aI92660
aI92680
aI92700
aI92720
aI92740
aI92760
aI92780
aI92800
aI92820
aI92840
aI92860
aI92880
aI92900
aI92920
aI92940
aI92960
aI92980
aI93000
aI93020
aI93040
aI93060
aI93080
aI93100
aI93120
aI93140
aI93160
aI93180
aI93200
aI93220
aI93240
aI93260
aI93280
aI93300
aI93320
aI93340
aI93360
aI93380
aI93400
aI93420
aI93440
aI93460
aI93480
aI93500
aI93520
aI93540
aI93560
aI93580
aI93600
aI93620
aI93640
aI93660
aI93680
aI93700
aI93720
aI93740
aI93760
aI93780
aI93800
aI93820
aI93840
aI93860
aI93880
aI93900
aI93920
aI93940
aI93960
aI93980
aI94000
aI94020
aI94040
aI94060
aI94080
aI94100
aI94120
aI94140
aI94160
aI94180
aI94200
aI94220
aI94240
aI94260
aI94280
aI94300
aI94320
aI94340
aI94360
aI94380
aI94400
aI94420
aI94440
aI94460
aI94480
aI94500
aI94520
aI94540
aI94560
aI94580
aI94600
aI94620
aI94640
aI94660
aI94680
aI94700
aI94720
aI94740
aI94760
aI94780
aI94800
aI94820
aI94840
aI94860
aI94880
aI94900
aI94920
aI94940
aI94960
aI94980
aI95000
aI95020
aI95040
aI95060
aI95080
aI95100
aI95120
aI95140
aI95160
aI95180
aI95200
aI95220
aI95240
aI95260
aI95280
aI95300
aI95320
aI95340
aI95360
aI95380
aI95400
aI95420
aI95440
aI95460
aI95480
aI95500
aI95520
aI95540
aI95560
aI95580
aI95600
aI95620
aI95640
aI95660
aI95680
aI95700
aI95720
aI95740
aI95760
aI95780
aI95800
aI95820
aI95840
aI95860
aI95880
aI95900
aI95920
aI95940
aI95960
aI95980
aI96000
aI96020
aI96040
aI96060
aI96080
aI96100
aI96120
aI96140
aI96160
aI96180
aI96200
aI96220
aI96240
aI96260
aI96280
aI96300
aI96320
aI96340
aI96360
aI96380
aI96400
aI96420
aI96440
aI96460
aI96480
aI96500
aI96520
aI96540
aI96560
aI96580
aI96600
aI96620
aI96640
aI96660
aI96680
aI96700
aI96720
aI96740
aI96760
aI96780
aI96800
aI96820
aI96840
aI96860
aI96880
aI96900
aI96920
aI96940
aI96960
aI96980
aI97000
aI97020
aI97040
aI97060
aI97080
aI97100
aI97120
aI97140
aI97160
aI97180
aI97200
aI97220
aI97240
aI97260
aI97280
aI97300
aI97320
aI97340
aI97360
aI97380
aI97400
aI97420
aI97440
aI97460
aI97480
aI97500
aI97520
aI97540
aI97560
aI97580
aI97600
aI97620
aI97640
aI97660
aI97680
aI97700
aI97720
aI97740
aI97760
aI97780
aI97800
aI97820
aI97840
aI97860
aI97880
aI97900
aI97920
aI97940
aI97960
aI97980
aI98000
aI98020
aI98040
aI98060
aI98080
aI98100
aI98120
aI98140
aI98160
aI98180
aI98200
aI98220
aI98240
aI98260
aI98280
aI98300
aI98320
aI98340
aI98360
aI98380
aI98400
aI98420
aI98440
aI98460
aI98480
aI98500
aI98520
aI98540
aI98560
aI98580
aI98600
aI98620
aI98640
aI98660
aI98680
aI98700
aI98720
aI98740
aI98760
aI98780
aI98800
aI98820
aI98840
aI98860
aI98880
aI98900
aI98920
aI98940
aI98960
aI98980
aI99000
aI99020
aI99040
aI99060
aI99080
aI99100
aI99120
aI99140
aI99160
aI99180
aI99200
aI99220
aI99240
aI99260
aI99280
aI99300
aI99320
aI99340
aI99360
aI99380
aI99400
aI99420
aI99440
aI99460
aI99480
aI99500
aI99520
aI99540
aI99560
aI99580
aI99600
aI99620
aI99640
aI99660
aI99680
aI99700
aI99720
aI99740
aI99760
aI99780
aI99800
aI99820
aI99840
aI99860
aI99880
aI99900
aI99920
aI99940
aI99960
aI99980
a(lp4
F42755.099999999999
aF29182.900000000001
aF22497.5
aF23432.599999999999
aF19322.900000000001
aF21764.799999999999
aF16800
aF12673.200000000001
aF12050.4
aF12124.200000000001
aF12903.700000000001
aF17832.5
aF11384.200000000001
aF11537.9
aF18562.700000000001
aF14648
aF10267.5
aF12277.799999999999
aF13435.1
aF9953.9400000000005
aF12639.200000000001
aF11523.6
aF12009.9
aF14779.9
aF13769.5
aF12654.200000000001
aF15294.799999999999
aF12517.200000000001
aF11268.9
aF7683.2700000000004
aF11310.799999999999
aF10962.9
aF9859.1000000000004
aF10541.299999999999
aF11182.4
aF14993.299999999999
aF11059.9
aF8917.5599999999995
aF12050.799999999999
aF9571.7099999999991
aF11888.799999999999
aF9496.1299999999992
aF9753.3500000000004
aF6726.1499999999996
aF10590.799999999999
aF9944.0599999999995
aF9105.2399999999998
aF11643.200000000001
aF6038.1199999999999
aF9754.2999999999993
aF13125.700000000001
aF8152.0699999999997
aF7542.3500000000004
aF8653.2700000000004
aF9638.7000000000007
aF11220.4
aF11076.5
aF10800.700000000001
aF9329.7299999999996
aF9582.9400000000005
aF9740.2399999999998
aF9386.6800000000003
aF11731.9
aF8944.7800000000007
aF10649
aF8570.7600000000002
aF12752.299999999999
aF9783.25
aF10942.5
aF10742
aF9112.2000000000007
aF7940.5200000000004
aF9697.6000000000004
aF9179.2199999999993
aF10196.1
aF9810.8500000000004
aF8267.8299999999999
aF9129.0599999999995
aF10363.5
aF8722.5100000000002
aF8443.4699999999993
aF11831.4
aF10737
aF7340.0600000000004
aF8589.1900000000005
aF7462.2700000000004
aF9250.1700000000001
aF9755.25
aF11243.9
aF10421.4
aF8293.2900000000009
aF7707.3500000000004
aF9406.4799999999996
aF7796.8999999999996
aF8319.0200000000004
aF9738.4899999999998
aF10133.799999999999
aF12522.299999999999
aF10071.799999999999
aF10387.1
aF11788.200000000001
aF9505.0799999999999
aF8940.2800000000007
aF6119.7700000000004
aF7661.8299999999999
aF8763.8600000000006
aF8699.25
aF7717.1800000000003
aF8536.2900000000009
aF8966.4899999999998
aF7708.4499999999998
aF9937.8799999999992
aF7133.1000000000004
aF7587.2600000000002
aF9557.7800000000007
aF7379.4300000000003
aF8596.7399999999998
aF7837.6499999999996
aF8859.6599999999999
aF11075.6
aF7718.2200000000003
aF9382.1800000000003
aF8549.5900000000001
aF5383.3900000000003
aF7845.5900000000001
aF8162.5699999999997
aF9304.7900000000009
aF10089
aF6863.1800000000003
aF8008.8699999999999
aF9158.3999999999996
aF9634.1100000000006
aF7633.1099999999997
aF9319.2199999999993
aF8789.1000000000004
aF8871.3799999999992
aF9090.0699999999997
aF9088.8099999999995
aF10357.700000000001
aF7426.4200000000001
aF7687.4399999999996
aF7033.7200000000003
aF7584.5699999999997
aF10174.5
aF8419.3500000000004
aF8794.0100000000002
aF8233.9699999999993
aF11799.1
aF8134.2700000000004
aF9685.2900000000009
aF8084.3500000000004
aF12116.799999999999
aF7150.5299999999997
aF9470.1000000000004
aF11650.700000000001
aF9256.8299999999999
aF8890.2900000000009
aF7218.6899999999996
aF10586.799999999999
aF8888.7299999999996
aF7698.2700000000004
aF8495.4899999999998
aF8998.3799999999992
aF8248.3500000000004
aF9260.4899999999998
aF7638.4700000000003
aF9522.9899999999998
aF10299.5
aF8971.2700000000004
aF9370.0200000000004
aF7778.8599999999997
aF9458.9400000000005
aF7133.29
aF10663.799999999999
aF9453.75
aF9689.3700000000008
aF8401.1599999999999
aF7000.1700000000001
aF7864.8999999999996
aF7446.9300000000003
aF8309.4799999999996
aF8094.5900000000001
aF8193.0200000000004
aF8259.4099999999999
aF8536.4599999999991
aF9671.2399999999998
aF12383.6
aF8864.4599999999991
aF8637.3799999999992
aF7658.21
aF7156.3000000000002
aF9020.3099999999995
aF7752.6899999999996
aF9947.3400000000001
aF7583.71
aF10584.6
aF7279.4200000000001
aF8952.4699999999993
aF8736.6200000000008
aF11926.299999999999
aF8438.6499999999996
aF7432.3100000000004
aF6919.54
aF6995.3699999999999
aF6236.04
aF8648.9599999999991
aF10949.5
aF10396.200000000001
aF9116.9599999999991
aF7868.6700000000001
aF10683
aF8799.2700000000004
aF8148.1700000000001
aF8252.5300000000007
aF7325.3599999999997
aF11436.200000000001
aF9426.5900000000001
aF7006.04
aF7833.7799999999997
aF8908.3299999999999
aF9055.8700000000008
aF8134.25
aF8975.4799999999996
aF6245.7200000000003
aF7124.5200000000004
aF8886.7199999999993
aF9406.2600000000002
aF9091.6399999999994
aF10377.799999999999
aF9451.9099999999999
aF7534.6599999999999
aF8225.3099999999995
aF7987.54
aF8187.6499999999996
aF6393.1899999999996
aF7928.4499999999998
aF9588.5300000000007
aF9661.5900000000001
aF6820.6700000000001
aF9510.9400000000005
aF8406.3299999999999
aF8870.2999999999993
aF8330.3600000000006
aF5802.4799999999996
aF8006.9300000000003
aF9401.1200000000008
aF9648.5799999999999
aF7489.7200000000003
aF6052.3000000000002
aF9071.0400000000009
aF7507.6599999999999
aF6018.2299999999996
aF8936.5499999999993
aF10555.9
aF8761.7399999999998
aF7790.5
aF9295.2900000000009
aF10171.799999999999
aF8082.9700000000003
aF8206.6599999999999
aF7266.1599999999999
aF8187.2200000000003
aF12165.799999999999
aF8647.2800000000007
aF7593.71
aF7671.4300000000003
aF7514.0699999999997
aF7271.3100000000004
aF6936.2200000000003
aF6833.79
aF7012.5600000000004
aF8300.0599999999995
aF8239.9099999999999
aF9436.2199999999993
aF5976.1599999999999
aF8017.6300000000001
aF7008.6000000000004
aF8274.2800000000007
aF7059.3500000000004
aF8153.9300000000003
aF9336.3700000000008
aF7993.4200000000001
aF9625.1399999999994
aF8349.2999999999993
aF8229.4200000000001
aF6872.5100000000002
aF9546.5400000000009
aF7698.8199999999997
aF10491
aF8241.8500000000004
aF8409.9300000000003
aF8002.1899999999996
aF11290.700000000001
aF6346.4700000000003
aF8792.2399999999998
aF8465.4799999999996
aF6673.0600000000004
aF9456.9400000000005
aF10525.4
aF9040.3600000000006
aF5547.3500000000004
aF9663.7900000000009
aF9973.3600000000006
aF8811.6200000000008
aF14507.1
aF8279.2399999999998
aF8194.7900000000009
aF6821.2399999999998
aF7504.6800000000003
aF8210.1299999999992
aF7028.3999999999996
aF8513.0300000000007
aF9094.6299999999992
aF7504.3800000000001
aF9421.8999999999996
aF7114.96
aF7970.5500000000002
aF9147.25
aF8413.7600000000002
aF7394.3199999999997
aF8622.4699999999993
aF6863.1300000000001
aF7259.5799999999999
aF6589.6999999999998
aF7264.0799999999999
aF7158.1400000000003
aF6915.3599999999997
aF7562.4200000000001
aF7570.3699999999999
aF7072.2399999999998
aF8487.9400000000005
aF11003.1
aF8651
aF8799.9099999999999
aF10039.200000000001
aF9379.0100000000002
aF7121.8000000000002
aF10195.700000000001
aF8387.0900000000001
aF6999.4099999999999
aF6881.2399999999998
aF9232.0699999999997
aF10819.5
aF7757.9399999999996
aF8849.2999999999993
aF9111.1200000000008
aF9181.6800000000003
aF8490.1499999999996
aF7663.2299999999996
aF9230.2600000000002
aF10169.700000000001
aF7905.8599999999997
aF8168.54
aF7765.1499999999996
aF8056.5900000000001
aF8785.8799999999992
aF5958.1499999999996
aF8974.6599999999999
aF8286.2099999999991
aF8128.5
aF7104.6700000000001
aF9317.0900000000001
aF7401.79
aF8777.8099999999995
aF7404.7700000000004
aF8350.2299999999996
aF8669.5499999999993
aF7329.7799999999997
aF6631.4200000000001
aF6437.3299999999999
aF6720
aF7976.4899999999998
aF8635.2099999999991
aF7516.1999999999998
aF8129.9899999999998
aF8500.9899999999998
aF8429.0499999999993
aF9957.0300000000007
aF6950.4700000000003
aF8140.8699999999999
aF8354.0200000000004
aF10112.5
aF6779.3500000000004
aF9121.7099999999991
aF10255.200000000001
aF7013.8299999999999
aF6785.3299999999999
aF6978.8100000000004
aF8995.7099999999991
aF8899.2600000000002
aF7749.1599999999999
aF8748.6299999999992
aF9238.1100000000006
aF6252.5100000000002
aF7295.5900000000001
aF8262.0900000000001
aF9424.2700000000004
aF6321.3699999999999
aF6036.9899999999998
aF8323.5599999999995
aF8196.2999999999993
aF6492.46
aF6494.3699999999999
aF7659.1800000000003
aF8091.6000000000004
aF7902.9099999999999
aF6763.29
aF8092.1400000000003
aF5607.0299999999997
aF6493.8000000000002
aF5683.75
aF4042.8200000000002
aF6519.4099999999999
aF8943.2199999999993
aF7674.0500000000002
aF8042.7700000000004
aF6400.0699999999997
aF8533.9799999999996
aF8705.3500000000004
aF8088.1300000000001
aF5528.8900000000003
aF6040.0799999999999
aF8681.2700000000004
aF7251.7200000000003
aF7503.4799999999996
aF7179.3000000000002
aF7611.3500000000004
aF8538.9699999999993
aF7695.5600000000004
aF7922.04
aF6175.1400000000003
aF8106.4700000000003
aF6768.4399999999996
aF7721.4499999999998
aF8967.2000000000007
aF10702.9
aF8097.7299999999996
aF9602.6100000000006
aF7301.3699999999999
aF8042.7200000000003
aF10292.1
aF7002.8900000000003
aF7688.96
aF6135.3900000000003
aF7812.6899999999996
aF7839.8599999999997
aF7338.3800000000001
aF6272.6899999999996
aF8149.8800000000001
aF8021.5600000000004
aF8680.9400000000005
aF7502.7799999999997
aF6536.3699999999999
aF7428.8000000000002
aF7188.1499999999996
aF8890.2299999999996
aF7056.3500000000004
aF7304.96
aF8292.1000000000004
aF5891.75
aF6547.8699999999999
aF7475.6099999999997
aF8004.6199999999999
aF8327.8199999999997
aF8708.3099999999995
aF7776.8699999999999
aF6853.2600000000002
aF6978.29
aF7927.6700000000001
aF5783.4200000000001
aF7524.6599999999999
aF7631.6400000000003
aF6277.8100000000004
aF6716.9700000000003
aF8476.6100000000006
aF6416.6499999999996
aF9898.4599999999991
aF5883.4899999999998
aF6087.0600000000004
aF7118.4499999999998
aF8457.3899999999994
aF6962.3900000000003
aF6779.0299999999997
aF9516.75
aF8507.8700000000008
aF7054.1700000000001
aF6824.5600000000004
aF9198.2600000000002
aF8315.7000000000007
aF6211.1700000000001
aF8705.2399999999998
aF8248.0599999999995
aF9389.3099999999995
aF7078.7700000000004
aF6576.1899999999996
aF6552.0100000000002
aF6619.0100000000002
aF9252.8899999999994
aF8768.9699999999993
aF7261.29
aF8613.0699999999997
aF8155.5699999999997
aF5553
aF6931.1800000000003
aF8735.2800000000007
aF7598.9799999999996
aF9342.1299999999992
aF6897.75
aF5760.0900000000001
aF6467.1300000000001
aF7578.1400000000003
aF7083.9099999999999
aF7209.6300000000001
aF6316.3999999999996
aF7242.7200000000003
aF8458.6299999999992
aF7551.8400000000001
aF7325.3299999999999
aF8218.8199999999997
aF6457
aF7484.8999999999996
aF8293.2600000000002
aF5966.46
aF7615.5500000000002
aF8419.4500000000007
aF6919.2200000000003
aF7648.1300000000001
aF7569.9399999999996
aF5808.9099999999999
aF8377.0200000000004
aF7747.3199999999997
aF7855.8199999999997
aF6022.8699999999999
aF7027.5299999999997
aF6596.9899999999998
aF10123
aF6461.8999999999996
aF8318.4500000000007
aF6990.9399999999996
aF7198.8199999999997
aF6500.6400000000003
aF5922.4700000000003
aF6975.8800000000001
aF6486.8100000000004
aF6832.2799999999997
aF6825.2399999999998
aF6895.7600000000002
aF5935.5299999999997
aF8433.5699999999997
aF7351.8699999999999
aF7650.0799999999999
aF7029.5799999999999
aF5338.0500000000002
aF7575.2399999999998
aF7062.9899999999998
aF7913.7399999999998
aF6700.6599999999999
aF8605.75
aF9075.2299999999996
aF6930.2399999999998
aF7357.3100000000004
aF9067.0900000000001
aF7578.7399999999998
aF5894.0799999999999
aF8696.1599999999999
aF8117.2799999999997
aF6643.4099999999999
aF5667.3999999999996
aF7339.5100000000002
aF7015.4700000000003
aF6603.7299999999996
aF8502.2900000000009
aF7399.3800000000001
aF6219.3100000000004
aF9556.3400000000001
aF7755.3299999999999
aF7116.0799999999999
aF7185.6400000000003
aF6813.3100000000004
aF7005.3699999999999
aF6549.54
aF7085.8199999999997
aF6304.5799999999999
aF7646.8999999999996
aF7618.5500000000002
aF7092.6199999999999
aF6746.7299999999996
aF8381.5
aF8010.1300000000001
aF7937.3999999999996
aF6362.4899999999998
aF7749.71
aF6961.7399999999998
aF6433.8699999999999
aF6201.1800000000003
aF6508.7799999999997
aF5668.6700000000001
aF7914.8800000000001
aF6932.1499999999996
aF6020.4799999999996
aF7942.0299999999997
aF6338.8299999999999
aF7556.96
aF7064.9300000000003
aF8927.2399999999998
aF7387.1700000000001
aF8004.0100000000002
aF8519.2000000000007
aF6413.6199999999999
aF9938.8500000000004
aF9053.8999999999996
aF7726.1000000000004
aF6277.1300000000001
aF9899.7199999999993
aF6279.3599999999997
aF6641.8699999999999
aF7561.3100000000004
aF8355.4500000000007
aF6560.4399999999996
aF6611.2700000000004
aF7956.79
aF8781.4699999999993
aF8588.7000000000007
aF6631.9899999999998
aF7817.9099999999999
aF6381.0100000000002
aF7682.6700000000001
aF8021.8900000000003
aF8476.6599999999999
aF6527.1099999999997
aF6998.0600000000004
aF6999.3299999999999
aF8251.9300000000003
aF5423.9799999999996
aF6557.8400000000001
aF7940.5100000000002
aF6449.2700000000004
aF5285.75
aF7269.3800000000001
aF7202.6599999999999
aF6648.4700000000003
aF7516.9300000000003
aF7950.2799999999997
aF7407.3100000000004
aF7857.0900000000001
aF5953.3100000000004
aF7163.8199999999997
aF6965.1400000000003
aF7182.4099999999999
aF7359.7299999999996
aF7943.1899999999996
aF7700.5500000000002
aF7590.1199999999999
aF7562.7700000000004
aF6323.0699999999997
aF6682.1000000000004
aF6762.1800000000003
aF8679.3199999999997
aF7113.8299999999999
aF7449.8299999999999
aF5708.5900000000001
aF6878.1000000000004
aF6301.8199999999997
aF8628.2099999999991
aF7495.6499999999996
aF9643.0200000000004
aF7388.1599999999999
aF7161.0600000000004
aF6720.6400000000003
aF8819.2600000000002
aF7225.3800000000001
aF7085.6700000000001
aF7328.4300000000003
aF9315.7299999999996
aF8437.8899999999994
aF6929.4799999999996
aF7603.6300000000001
aF5147.2399999999998
aF8273.0200000000004
aF9561.9799999999996
aF6629.8500000000004
aF6477.6499999999996
aF6632.5200000000004
aF7937.3500000000004
aF7917.7799999999997
aF7640.2200000000003
aF7006.3900000000003
aF5226.6300000000001
aF6568.5699999999997
aF7967.5600000000004
aF7034.5299999999997
aF6246.1000000000004
aF8153.1599999999999
aF6457.3999999999996
aF7648.5500000000002
aF6525.6800000000003
aF6911.9799999999996
aF8288.6599999999999
aF6530.4200000000001
aF7551.1000000000004
aF6627.8900000000003
aF6486.4700000000003
aF7167.3999999999996
aF6260.2399999999998
aF6778.6700000000001
aF6905.75
aF6377.9700000000003
aF7163.0600000000004
aF7498.8199999999997
aF6820.3699999999999
aF7249.3699999999999
aF6816.6400000000003
aF6879.3500000000004
aF6957.8299999999999
aF7897.4499999999998
aF8669.5400000000009
aF6914.2799999999997
aF7368.6300000000001
aF6486.0200000000004
aF8717.3799999999992
aF10691.700000000001
aF7565.71
aF8544.0900000000001
aF7330.5699999999997
aF7878.2200000000003
aF7884.5600000000004
aF6541.9300000000003
aF5597.9399999999996
aF5751.7200000000003
aF6877.9300000000003
aF6539.0100000000002
aF7323.7399999999998
aF6546.0100000000002
aF9280.3299999999999
aF7889.8599999999997
aF7508.1899999999996
aF8045.7399999999998
aF6756.5600000000004
aF5578.96
aF6513.1300000000001
aF6367.4099999999999
aF7132.9099999999999
aF7937.6700000000001
aF5098.3599999999997
aF9348.4599999999991
aF6865.8699999999999
aF7596.5500000000002
aF8192.6800000000003
aF8392.7999999999993
aF7307.0500000000002
aF6184.7299999999996
aF8909.7399999999998
aF6550.4700000000003
aF6941.4200000000001
aF7250.3699999999999
aF6564.29
aF7671.8400000000001
aF8209.6900000000005
aF9639.8700000000008
aF8301.8500000000004
aF5705.5600000000004
aF8226.5599999999995
aF6120.6199999999999
aF6511.2200000000003
aF6845.1700000000001
aF7427.3400000000001
aF6848.6899999999996
aF8626.1399999999994
aF7577.5200000000004
aF6495.0299999999997
aF7670.2200000000003
aF8334.6800000000003
aF7921.7299999999996
aF7315.1199999999999
aF6497.5500000000002
aF7502.9799999999996
aF8638.1200000000008
aF8295.4500000000007
aF8008.3699999999999
aF8568.6499999999996
aF8349.9099999999999
aF7625.4300000000003
aF11058.200000000001
aF6653.9399999999996
aF7613.0799999999999
aF8507.7399999999998
aF7471.21
aF7392.0200000000004
aF5714.7200000000003
aF8079.6099999999997
aF6886.6499999999996
aF7468.6300000000001
aF6557.8800000000001
aF6285.4399999999996
aF7071.4899999999998
aF6375.8299999999999
aF6892.1599999999999
aF6446.9799999999996
aF8532.2800000000007
aF7870.5500000000002
aF14906.200000000001
aF8375.3099999999995
aF5409.0799999999999
aF6117.9399999999996
aF7060.71
aF7962.7299999999996
aF7682.6700000000001
aF6898.1300000000001
aF7227
aF10660.700000000001
aF6597.1400000000003
aF7025.6700000000001
aF9056.75
aF7341.5900000000001
aF8648.2800000000007
aF7915.2700000000004
aF7965.3000000000002
aF7598.8299999999999
aF8428.8999999999996
aF8461.0599999999995
aF7832.8500000000004
aF7588.7799999999997
aF8133.3199999999997
aF7363.8900000000003
aF7893.9899999999998
aF8505.8700000000008
aF8488.1599999999999
aF7022.4899999999998
aF7109.8100000000004
aF7027.4399999999996
aF9507.0200000000004
aF5911.7299999999996
aF7205.6000000000004
aF8320.2999999999993
aF6305.6099999999997
aF10350.799999999999
aF8422.8799999999992
aF8876.5499999999993
aF8820.1399999999994
aF6866.04
aF6411.6000000000004
aF6280.5699999999997
aF6362.6300000000001
aF7667.54
aF8182.1300000000001
aF7028.6499999999996
aF6071.7799999999997
aF7901.5799999999999
aF7021.5200000000004
aF6943.5900000000001
aF7305.2299999999996
aF8449.7700000000004
aF6673.4799999999996
aF8066.71
aF6159.0200000000004
aF6169.6000000000004
aF5663.04
aF8311.5100000000002
aF5472.6000000000004
aF6873.7399999999998
aF6679.3599999999997
aF9970.4400000000005
aF8284.6499999999996
aF6454.9300000000003
aF6597.6199999999999
aF7237.7700000000004
aF8368.1399999999994
aF6483.1300000000001
aF5874.0500000000002
aF7152.5
aF8665.6000000000004
aF7195.46
aF6699.7799999999997
aF9055.3899999999994
aF7511.1700000000001
aF5666.3699999999999
aF6627.6000000000004
aF8246.0799999999999
aF6331.8599999999997
aF6977.6000000000004
aF7206.54
aF7872.7700000000004
aF7357.8699999999999
aF7327.8900000000003
aF7945.1999999999998
aF8057.7299999999996
aF7649.1800000000003
aF6308.1300000000001
aF6786.0100000000002
aF9067.6599999999999
aF7242.3400000000001
aF7693.29
aF6713.54
aF6507.2600000000002
aF6198.3199999999997
aF7429.21
aF7894.8699999999999
aF6336.1199999999999
aF6786.2799999999997
aF7476.6499999999996
aF7735.6999999999998
aF8181.6599999999999
aF6922.2200000000003
aF7468.6000000000004
aF9430.0699999999997
aF8398.7099999999991
aF7064.3800000000001
aF6316.0500000000002
aF6721.9399999999996
aF6989.2700000000004
aF7769.2799999999997
aF11013.299999999999
aF7335.3500000000004
aF8947.6900000000005
aF7129.1499999999996
aF5999.1400000000003
aF7958.3500000000004
aF5835.7799999999997
aF8628.3700000000008
aF7286.6700000000001
aF8099.5699999999997
aF7247.21
aF9510.0900000000001
aF5900.46
aF8605.6599999999999
aF7516.1999999999998
aF7525.3400000000001
aF7648.3999999999996
aF7333.4399999999996
aF5901.8299999999999
aF7142.5100000000002
aF6998.3900000000003
aF7560.2700000000004
aF6361.96
aF8339.6599999999999
aF6527.6700000000001
aF7064.6899999999996
aF6732.8999999999996
aF7626.2299999999996
aF7049.1300000000001
aF6662.0799999999999
aF7192.4799999999996
aF8283.3899999999994
aF7677.5299999999997
aF7113.6899999999996
aF5918.3999999999996
aF6727.2399999999998
aF7647.7600000000002
aF6617.9099999999999
aF7253.3199999999997
aF8772.4699999999993
aF6965.79
aF5064.2799999999997
aF5910.5500000000002
aF6522.3500000000004
aF7519.5600000000004
aF6206.75
aF8398.9300000000003
aF6719.5900000000001
aF8254.7000000000007
aF5911.4200000000001
aF6567.3199999999997
aF8279.7999999999993
aF7206.96
aF6233.6400000000003
aF9634.4799999999996
aF6953
aF6474.4399999999996
aF7027.8100000000004
aF6559.9700000000003
aF5606.0500000000002
aF6803.7600000000002
aF6649.0699999999997
aF6705.3800000000001
aF9794.9300000000003
aF7514.8400000000001
aF7068.6000000000004
aF6352.4700000000003
aF7572.4200000000001
aF7715.3800000000001
aF5631.1000000000004
aF7613.1999999999998
aF8587.4699999999993
aF7042.8299999999999
aF5859.1800000000003
aF5814.5100000000002
aF7785.1300000000001
aF7643.3900000000003
aF7655.75
aF8303.8199999999997
aF7758.3800000000001
aF7943.6199999999999
aF8587.4200000000001
aF7173.4899999999998
aF7943.9399999999996
aF7498.8900000000003
aF6681.3299999999999
aF6342.9300000000003
aF8416.4599999999991
aF7103.8999999999996
aF7121.5699999999997
aF7696.29
aF6822.1000000000004
aF7228.1199999999999
aF7513.7399999999998
aF6764.7399999999998
aF6897.4700000000003
aF7257.6300000000001
aF6854.5799999999999
aF5901.6800000000003
aF7677.3299999999999
aF6218.3000000000002
aF9201.4200000000001
aF6804.1199999999999
aF6886.9499999999998
aF9888.7000000000007
aF6916.3000000000002
aF6974.6099999999997
aF8683.1100000000006
aF7690.5100000000002
aF6732.25
aF8552.7000000000007
aF6438.7299999999996
aF6146.8100000000004
aF7188.6199999999999
aF8784.3700000000008
aF6964.8699999999999
aF7099.3100000000004
aF7482.1199999999999
aF8766.6700000000001
aF8475.3199999999997
aF7463.3699999999999
aF7523
aF7879.7299999999996
aF7355.8800000000001
aF9125.4799999999996
aF6888.75
aF7851.6999999999998
aF8413.1700000000001
aF7299.4399999999996
aF6985.8400000000001
aF7809.1899999999996
aF6297.2700000000004
aF8585.9300000000003
aF7886.5
aF7067.3400000000001
aF8894.9799999999996
aF8290.1800000000003
aF8618
aF7349.8800000000001
aF7897.2399999999998
aF5583.1300000000001
aF6326.8800000000001
aF8257.8700000000008
aF5772.25
aF7245.1700000000001
aF6313.3800000000001
aF7033.9499999999998
aF6691.8699999999999
aF6242.5500000000002
aF8289.2399999999998
aF6297.46
aF7543.25
aF8645.5900000000001
aF6778.5699999999997
aF8444.4300000000003
aF7614.3900000000003
aF10827.299999999999
aF7121.2700000000004
aF6628.79
aF4981.3100000000004
aF6034.3500000000004
aF8047.1800000000003
aF5902.25
aF9608.1599999999999
aF7970.5500000000002
aF10321.6
aF8997.25
aF6979.9300000000003
aF8819.6599999999999
aF6805.4099999999999
aF6779.5699999999997
aF7057.8699999999999
aF6897.8500000000004
aF6655.0200000000004
aF8422.7999999999993
aF6903.6499999999996
aF6125.3100000000004
aF7468.8100000000004
aF6785.5500000000002
aF6341.4899999999998
aF8844.4599999999991
aF7962.9700000000003
aF8734.8199999999997
aF5950.2700000000004
aF6698.79
aF7669.9200000000001
aF5496.4399999999996
aF6632.8699999999999
aF6571.1599999999999
aF8757.3600000000006
aF5966.9799999999996
aF8119.3500000000004
aF6344.0500000000002
aF7658.9200000000001
aF8113.8599999999997
aF7726.9399999999996
aF7340.8800000000001
aF7565.1700000000001
aF8643.3799999999992
aF8438.2399999999998
aF7550.4099999999999
aF7122.8100000000004
aF6139.29
aF8157.3599999999997
aF8550.0799999999999
aF7510.8699999999999
aF6581.9200000000001
aF7040.3900000000003
aF6334.2399999999998
aF6669.6599999999999
aF6920.1300000000001
aF9903.8199999999997
aF7093.1999999999998
aF9604.1900000000005
aF9748.6599999999999
aF7396.9300000000003
aF7819.2299999999996
aF8562.2299999999996
aF8772.1299999999992
aF7974.6400000000003
aF7968.1700000000001
aF7865.9899999999998
aF7589.8100000000004
aF6305.4099999999999
aF8585.5
aF6728.0200000000004
aF6640.9099999999999
aF6628.6400000000003
aF6484.3199999999997
aF9975.3299999999999
aF7223.5
aF6282.2600000000002
aF6976.3999999999996
aF8186.4200000000001
aF6835.3900000000003
aF8092.1199999999999
aF7603.3100000000004
aF8713
aF6515.4899999999998
aF7375.8999999999996
aF6630.46
aF7123.9099999999999
aF5942.9700000000003
aF8005.3299999999999
aF7262.4799999999996
aF9528.7099999999991
aF6298.4300000000003
aF6435.2700000000004
aF7332.8500000000004
aF5668.8800000000001
aF6883.4799999999996
aF6721.7600000000002
aF6906.5600000000004
aF7475.3999999999996
aF5659.1499999999996
aF8586.6299999999992
aF6200.1700000000001
aF7930.2700000000004
aF9482.1599999999999
aF7032.2799999999997
aF7654.7200000000003
aF6599.75
aF8041.1700000000001
aF6614.75
aF6480.5500000000002
aF7137.8599999999997
aF8384.7199999999993
aF6665.4200000000001
aF7041.21
aF6828.4700000000003
aF6515.9899999999998
aF8024.6000000000004
aF7714.0600000000004
aF5112.7600000000002
aF6840.8400000000001
aF7813.8900000000003
aF7168.1499999999996
aF5519.1999999999998
aF7852.8999999999996
aF7074.04
aF6475.0799999999999
aF6274.8100000000004
aF9215.2600000000002
aF7054.3400000000001
aF6952.3000000000002
aF6582.7399999999998
aF8806.6100000000006
aF6902.9499999999998
aF6138.0100000000002
aF7026.46
aF6171.1400000000003
aF7595.1300000000001
aF6926.3199999999997
aF9216.75
aF6573.8599999999997
aF7030.6300000000001
aF8657.2000000000007
aF6759.0200000000004
aF8182.4700000000003
aF6318.8299999999999
aF6460.0699999999997
aF6752
aF7125.4099999999999
aF6965.7399999999998
aF8658.3799999999992
aF8551.4599999999991
aF5624.9200000000001
aF7813.0900000000001
aF8952.8899999999994
aF5281.4700000000003
aF6198.3000000000002
aF6577.6099999999997
aF8962.25
aF6194.9300000000003
aF8000.8800000000001
aF6008.2399999999998
aF10048.9
aF7274.0200000000004
aF7884.8299999999999
aF6088.4799999999996
aF8178.1099999999997
aF6493.6400000000003
aF7046.2399999999998
aF6033.3100000000004
aF7747.9899999999998
aF5963.54
aF7141.3800000000001
aF8597.2800000000007
aF8231.8299999999999
aF6735.8100000000004
aF5889.4700000000003
aF7002.7799999999997
aF6364.5
aF6372.3299999999999
aF8355.9200000000001
aF7572.8500000000004
aF7755.9899999999998
aF6599.6099999999997
aF7048.7600000000002
aF5994.0500000000002
aF6680.1800000000003
aF7415.8500000000004
aF8359.5100000000002
aF7072.1000000000004
aF7116.75
aF8286.9300000000003
aF8202.3500000000004
aF6134.6000000000004
aF5902.0500000000002
aF5756.6300000000001
aF7793.7299999999996
aF6918.7799999999997
aF6082.6400000000003
aF6186.8599999999997
aF6397.5299999999997
aF7601.7299999999996
aF6536
aF6281.7600000000002
aF6183.8000000000002
aF8408.6299999999992
aF7861.1899999999996
aF5712.6899999999996
aF7258.6899999999996
aF8820.8700000000008
aF6363.6999999999998
aF6275.5600000000004
aF8325.1800000000003
aF8127.0100000000002
aF5648.4799999999996
aF6664.7299999999996
aF7858.4799999999996
aF7073.6000000000004
aF8935.3099999999995
aF7169.8000000000002
aF8072.9099999999999
aF9779.4799999999996
aF5684.0900000000001
aF7057.0600000000004
aF5982.4200000000001
aF6976.25
aF6888.6400000000003
aF10063.299999999999
aF8274.2199999999993
aF6332.3000000000002
aF6709.04
aF6497.1000000000004
aF7492.9399999999996
aF6630.3500000000004
aF6983.9899999999998
aF9762.5499999999993
aF7315.6199999999999
aF7881.9799999999996
aF6686.3400000000001
aF6900.2200000000003
aF6781
aF6860.8199999999997
aF6851.2399999999998
aF7860.0100000000002
aF7368.9899999999998
aF7512.2600000000002
aF6237.5600000000004
aF6037.1999999999998
aF8169.3900000000003
aF9942.8199999999997
aF8170.6800000000003
aF8476.3700000000008
aF6381.2700000000004
aF5781.0900000000001
aF9468.4500000000007
aF6979.2700000000004
aF13435
aF7117.3699999999999
aF8030.3400000000001
aF7477.5500000000002
aF5401.5699999999997
aF5875.7399999999998
aF6145.3999999999996
aF6644.2299999999996
aF6029.0100000000002
aF7575.0900000000001
aF6882.6400000000003
aF6450.4799999999996
aF7800.1400000000003
aF8021.0500000000002
aF6399
aF5591.04
aF7263.4499999999998
aF7401.6199999999999
aF6493
aF6807.6999999999998
aF9840.9799999999996
aF6988.0200000000004
aF6192.7200000000003
aF7482.7700000000004
aF7140.9499999999998
aF6163.0799999999999
aF7716.75
aF7175.3599999999997
aF6340.3699999999999
aF6462
aF6564.7299999999996
aF8568.0900000000001
aF6304.8400000000001
aF8854.1599999999999
aF7848.1800000000003
aF5518.6499999999996
aF8008.3800000000001
aF6334.0200000000004
aF8343.8799999999992
aF7276.1899999999996
aF6549.1700000000001
aF6660.4300000000003
aF8568.0599999999995
aF6753.0799999999999
aF5483.7399999999998
aF6142.79
aF9193.9200000000001
aF7385.04
aF8004.8000000000002
aF7155.9300000000003
aF6951.6400000000003
aF8441.4500000000007
aF5779.3500000000004
aF6612.3400000000001
aF7214.0500000000002
aF7769.9099999999999
aF6916.3800000000001
aF9074.9400000000005
aF7706.1499999999996
aF7496.3999999999996
aF6450.6300000000001
aF7691.8000000000002
aF7607.9799999999996
aF6675.1499999999996
aF5681.29
aF5760.2600000000002
aF7471.6300000000001
aF8772.4200000000001
aF6405.8500000000004
aF7112.4700000000003
aF8474.5799999999999
aF7513.3900000000003
aF8792.4400000000005
aF7804.2799999999997
aF8307.7700000000004
aF8298.7999999999993
aF6710.0699999999997
aF6497.21
aF7550.7600000000002
aF6211.0799999999999
aF7195.8699999999999
aF6087.8500000000004
aF6004.0100000000002
aF7423.1000000000004
aF9082.6800000000003
aF8089.9200000000001
aF6152.5500000000002
aF7687.5699999999997
aF7125.9300000000003
aF5170.04
aF6640.6899999999996
aF8229.8999999999996
aF7532.75
aF7338.75
aF7184.6599999999999
aF7116.5200000000004
aF7100.4499999999998
aF7345.0299999999997
aF6794.7200000000003
aF8631.7600000000002
aF7374.8999999999996
aF6872.8800000000001
aF6229.2200000000003
aF8063.96
aF6001.5900000000001
aF6496.2200000000003
aF7088.1099999999997
aF7063.0699999999997
aF9469.5499999999993
aF6485.6800000000003
aF7112.04
aF7629.6000000000004
aF6962.21
aF8545.9400000000005
aF9165.9699999999993
aF9207.3999999999996
aF7813.5200000000004
aF8277.2900000000009
aF7162.1099999999997
aF7100.0799999999999
aF6444.8699999999999
aF10729.9
aF9516.2999999999993
aF7506.4399999999996
aF6972.8800000000001
aF7990.7799999999997
aF7010
aF7501.0900000000001
aF6561.5
aF7222.1700000000001
aF6813.7299999999996
aF7426.0299999999997
aF6602.8800000000001
aF8964.0200000000004
aF8905.4799999999996
aF9798.5799999999999
aF7822.75
aF7468.3699999999999
aF8113.3299999999999
aF8486.4099999999999
aF8068.3299999999999
aF8206.1599999999999
aF6629.3500000000004
aF6348.21
aF6840.4399999999996
aF6619.8199999999997
aF6884.3199999999997
aF6933.3500000000004
aF7395.6199999999999
aF8230.6800000000003
aF7224.1899999999996
aF5598.96
aF8529.9699999999993
aF6069.1000000000004
aF8312.5900000000001
aF5710.0600000000004
aF6247.0699999999997
aF8399.2199999999993
aF5724.7299999999996
aF7059.6800000000003
aF7067.5699999999997
aF7829.8599999999997
aF6513.5799999999999
aF8074.3800000000001
aF7045.6199999999999
aF6808.4700000000003
aF6827.6300000000001
aF6235.6800000000003
aF8023.2600000000002
aF7235.6999999999998
aF5837.25
aF6158
aF7297.7299999999996
aF7098.9200000000001
aF6762.9300000000003
aF6564.6300000000001
aF6986.3400000000001
aF7868.1800000000003
aF7628.1300000000001
aF8037.6800000000003
aF5723.1499999999996
aF6947.7799999999997
aF9082.7700000000004
aF8342.3700000000008
aF7088.5799999999999
aF6453.8299999999999
aF6237.9499999999998
aF7952.8999999999996
aF7710.46
aF7835.6199999999999
aF6484.5299999999997
aF6464.1599999999999
aF10400
aF7273.5500000000002
aF7507.2200000000003
aF6340.1899999999996
aF5434.9399999999996
aF6965.8299999999999
aF6645.5200000000004
aF8683.5799999999999
aF9545.7800000000007
aF6946.8100000000004
aF9015.7399999999998
aF7299.1300000000001
aF6912.8900000000003
aF7064.1400000000003
aF6400.6800000000003
aF7657.5100000000002
aF8955.9699999999993
aF7635.0799999999999
aF7703.8299999999999
aF6001.3299999999999
aF7751.9399999999996
aF8022.5299999999997
aF7632.8800000000001
aF7365.8699999999999
aF8050.1499999999996
aF7831.3100000000004
aF6765.5299999999997
aF5723.6999999999998
aF6158.0200000000004
aF7434.7600000000002
aF7276.6499999999996
aF9855.5100000000002
aF8698.9899999999998
aF8162.5600000000004
aF7282.3599999999997
aF8724.4699999999993
aF8385.5699999999997
aF7531.1199999999999
aF8722.4799999999996
aF7091.6599999999999
aF7583.7299999999996
aF6947.3299999999999
aF7439.54
aF9544.9300000000003
aF7891.3599999999997
aF6819.1700000000001
aF8178.7799999999997
aF7675.0299999999997
aF8307.1000000000004
aF9395.7099999999991
aF6915.1199999999999
aF7308.8500000000004
aF10379.5
aF6699.4700000000003
aF6326.2799999999997
aF6225.0299999999997
aF7820.3400000000001
aF6427.96
aF7369.9300000000003
aF7050.5900000000001
aF6202.1899999999996
aF8084.8299999999999
aF7160.3400000000001
aF8568.4599999999991
aF10704.6
aF6007.79
aF8180.1000000000004
aF7099.3400000000001
aF5964.8599999999997
aF7302.9300000000003
aF8544.2999999999993
aF6402.2299999999996
aF6660.7700000000004
aF6818.2600000000002
aF6707.5
aF6301.6000000000004
aF6736.0699999999997
aF7424.7299999999996
aF7309
aF8786.4599999999991
aF6922.1099999999997
aF6631.3900000000003
aF8331.5900000000001
aF5618
aF6999.1899999999996
aF7159.8199999999997
aF7152.9099999999999
aF6499.3599999999997
aF8664.8999999999996
aF6910.1199999999999
aF7569.9399999999996
aF6927.1599999999999
aF7223.2799999999997
aF6337.3800000000001
aF5103.79
aF6664.5699999999997
aF6283.4499999999998
aF5982.6800000000003
aF6939.5600000000004
aF5679.0600000000004
aF12820.5
aF7084.9300000000003
aF6543.7799999999997
aF7483.3500000000004
aF10192.799999999999
aF6201.6400000000003
aF7547.21
aF11128.1
aF6775.2299999999996
aF6843.8000000000002
aF6017.5600000000004
aF8447.9799999999996
aF6469.3199999999997
aF7679.8800000000001
aF7039.1599999999999
aF6063.8299999999999
aF7185.2399999999998
aF7870.5799999999999
aF9832.1200000000008
aF6836.1999999999998
aF6002.2200000000003
aF8782.3700000000008
aF7440.3999999999996
aF6589.5799999999999
aF9438.0300000000007
aF7683.8400000000001
aF6993.9200000000001
aF5660
aF7314.3400000000001
aF8140.46
aF6502.6700000000001
aF7972.4700000000003
aF8189.79
aF8289.3400000000001
aF6788.6899999999996
aF7140.3500000000004
aF6510.9200000000001
aF6918
aF7886.3800000000001
aF6691.3900000000003
aF7413.9399999999996
aF7490.9700000000003
aF7586.7200000000003
aF7475.8299999999999
aF6784.6599999999999
aF6936.9300000000003
aF5414.9899999999998
aF5344.1899999999996
aF8341.8299999999999
aF5965.6300000000001
aF6941.6599999999999
aF6860.3599999999997
aF8023.6700000000001
aF7606.1800000000003
aF6081.5299999999997
aF6394.9200000000001
aF6821.5
aF8343.5900000000001
aF8782.2099999999991
aF7837.3699999999999
aF8527.9799999999996
aF6001.3299999999999
aF7720.4399999999996
aF7786.6099999999997
aF6345.3400000000001
aF7075.5
aF6686.5299999999997
aF8558.1200000000008
aF7433.4099999999999
aF7637.8199999999997
aF8244.7999999999993
aF7338.25
aF8849.1299999999992
aF6517.6700000000001
aF6618.8800000000001
aF6514.8100000000004
aF5434.5900000000001
aF7459.4700000000003
aF7288.9300000000003
aF7086.5100000000002
aF6050
aF6806.8299999999999
aF6927.8299999999999
aF6002.4200000000001
aF6921.7600000000002
aF6515.0600000000004
aF8444.1399999999994
aF7071.0200000000004
aF8494.3199999999997
aF7146.4099999999999
aF7327.5900000000001
aF8270.7199999999993
aF7519.6499999999996
aF6644.9799999999996
aF6740.8199999999997
aF7178.0100000000002
aF8638.7700000000004
aF5878.8900000000003
aF7970.7399999999998
aF8004.25
aF7127.0200000000004
aF6814.7799999999997
aF5536.25
aF8803
aF8003.25
aF9337.7600000000002
aF6977.7600000000002
aF6927.9700000000003
aF6395.3500000000004
aF7135.6300000000001
aF6690.8199999999997
aF6174.4700000000003
aF7979.8599999999997
aF7850.9700000000003
aF7202.7299999999996
aF9257.8099999999995
aF7523.4099999999999
aF7791.3500000000004
aF6268.9099999999999
aF8285.5599999999995
aF7450.29
aF7778.7399999999998
aF8254.1499999999996
aF6250.9799999999996
aF8083.8100000000004
aF6943.75
aF5987.21
aF7239.8800000000001
aF7177.25
aF6142.8199999999997
aF7302.6400000000003
aF7371.9700000000003
aF7624.2200000000003
aF6317.2799999999997
aF6657.4799999999996
aF6961.29
aF8001.0200000000004
aF7285.3000000000002
aF6835.8199999999997
aF7971.04
aF7969.6599999999999
aF8625.5699999999997
aF8304.0300000000007
aF7543.6400000000003
aF9680.0499999999993
aF6900.8100000000004
aF6987.8400000000001
aF6476.8100000000004
aF8103.7700000000004
aF7210.3000000000002
aF7620.5299999999997
aF10460.700000000001
aF6252.2200000000003
aF7578.8900000000003
aF6686.2799999999997
aF7053.1599999999999
aF6558.3900000000003
aF6538.46
aF6089.9200000000001
aF7168.7600000000002
aF6355.54
aF7435.5100000000002
aF7366.6599999999999
aF5435.1800000000003
aF6479.0200000000004
aF7362.75
aF6039.5500000000002
aF8303.3899999999994
aF7249.5799999999999
aF5867.2200000000003
aF6977.8699999999999
aF7063.21
aF5901.8000000000002
aF7749.2600000000002
aF6295.5799999999999
aF6416.9899999999998
aF8461.4599999999991
aF8887.5100000000002
aF5826.7299999999996
aF7166.6000000000004
aF8841.2900000000009
aF6623.4200000000001
aF8344.7399999999998
aF7147.4700000000003
aF7389.7399999999998
aF5941.5
aF8246.8400000000001
aF6570.25
aF6532
aF7170.1199999999999
aF7426.46
aF6016.6899999999996
aF7557.75
aF7149.3900000000003
aF6723.8900000000003
aF7830.3199999999997
aF6422.4700000000003
aF5901.4300000000003
aF7703.5600000000004
aF6475.6499999999996
aF6799.7799999999997
aF8256.7600000000002
aF6947.0200000000004
aF6951.4899999999998
aF7974.4799999999996
aF6630.6499999999996
aF6947.4399999999996
aF5756.9099999999999
aF7251.1300000000001
aF8485.8400000000001
aF7874.8800000000001
aF7955.6700000000001
aF6896.3100000000004
aF7303.2799999999997
aF6040.29
aF7605.2399999999998
aF6259
aF7530.96
aF6056.5299999999997
aF8186.4899999999998
aF6887.8699999999999
aF6780.6000000000004
aF6310.8299999999999
aF7357.3599999999997
aF7855.5100000000002
aF5528.6099999999997
aF8671.5699999999997
aF6475.1700000000001
aF7604.3199999999997
aF6665.2200000000003
aF7206.0100000000002
aF7089.0500000000002
aF7044.7799999999997
aF8301.2000000000007
aF8461.5200000000004
aF8295.8500000000004
aF7784.4099999999999
aF8408.3500000000004
aF10555.9
aF6234.21
aF6474.6199999999999
aF6806.29
aF5243.5200000000004
aF6275.3400000000001
aF6256.96
aF5711.5900000000001
aF8329.6700000000001
aF7901.6199999999999
aF5738.8900000000003
aF7286.6999999999998
aF6929.71
aF5677.3500000000004
aF5341.04
aF5808.8800000000001
aF6058.25
aF7335.1999999999998
aF8153.6000000000004
aF7300.4499999999998
aF7409.3000000000002
aF7012.6599999999999
aF8224.7600000000002
aF8175.1000000000004
aF6516.3299999999999
aF9682.6800000000003
aF6722.4099999999999
aF9602.8899999999994
aF7747.5200000000004
aF9377.2199999999993
aF8026.7799999999997
aF6544.3999999999996
aF7500.2399999999998
aF5667.3299999999999
aF7838.5699999999997
aF7768.8999999999996
aF7224.4799999999996
aF5830.8599999999997
aF7650.79
aF8087.5200000000004
aF7304.1599999999999
aF8203.3700000000008
aF6287.5900000000001
aF8135.0500000000002
aF8181.2200000000003
aF6467.8800000000001
aF7184.1199999999999
aF7270.2799999999997
aF6732.5100000000002
aF6793.8500000000004
aF8226.3799999999992
aF6438.5100000000002
aF8676.3400000000001
aF6548.71
aF8422.1499999999996
aF7995.3299999999999
aF8265.5699999999997
aF8028.3900000000003
aF10829.799999999999
aF5999.6000000000004
aF6353.3000000000002
aF6659.4300000000003
aF8036.4200000000001
aF6877.5699999999997
aF8003.2299999999996
aF6340.0799999999999
aF6960.0100000000002
aF9587.4699999999993
aF7696.1300000000001
aF6457.71
aF6728.1700000000001
aF6639.46
aF7168.2799999999997
aF6759.5900000000001
aF5807.96
aF7116.21
aF6782.3400000000001
aF7682.8299999999999
aF6889.1099999999997
aF8047.8299999999999
aF7714.2200000000003
aF7258.96
aF6594.9499999999998
aF6488.1999999999998
aF7878.9700000000003
aF7787.71
aF7136.9899999999998
aF8738.9799999999996
aF5905.6599999999999
aF9911.75
aF7396.8999999999996
aF7989.96
aF6587.96
aF7169.2700000000004
aF6064.29
aF7952.9700000000003
aF8001.8500000000004
aF6816.8000000000002
aF5952.9499999999998
aF7966.1800000000003
aF7155.0600000000004
aF7137.5699999999997
aF6229.3100000000004
aF9386.7199999999993
aF6375.0500000000002
aF7474.3299999999999
aF6569.4099999999999
aF7748.1099999999997
aF6063.8900000000003
aF8476.7299999999996
aF6154.3999999999996
aF7954.5799999999999
aF7372.3699999999999
aF6228.1899999999996
aF8365.1599999999999
aF7157.6199999999999
aF6023.1899999999996
aF5649.8599999999997
aF9140.2700000000004
aF7366.04
aF6723.1700000000001
aF7435.5
aF6908.3400000000001
aF7080.8599999999997
aF6800.6499999999996
aF7393.46
aF7959.6400000000003
aF6475.6999999999998
aF6419.8900000000003
aF5605.4200000000001
aF7809.3199999999997
aF9574.0699999999997
aF8286.2000000000007
aF7018.9700000000003
aF6987.2600000000002
aF7197.5900000000001
aF6689.46
aF6822.3000000000002
aF5248.3800000000001
aF8710.7800000000007
aF5978.6199999999999
aF7954.1400000000003
aF8485.9300000000003
aF7760.2200000000003
aF8317.4500000000007
aF6814
aF7735.4799999999996
aF8890.3799999999992
aF7250.6099999999997
aF6701.3100000000004
aF7435.8299999999999
aF7905.6899999999996
aF7795.4200000000001
aF6841.3100000000004
aF6003.1999999999998
aF8766.5100000000002
aF7863.6199999999999
aF6037.5699999999997
aF11189.4
aF7037.6999999999998
aF8569.2600000000002
aF7672.3100000000004
aF6510.1400000000003
aF8853.5599999999995
aF6032.1199999999999
aF6477.9200000000001
aF7943.8400000000001
aF6488.8000000000002
aF7580.3699999999999
aF6585.1199999999999
aF8181.3100000000004
aF5980.5299999999997
aF7188.4300000000003
aF8170.8900000000003
aF7471.0299999999997
aF7472.8900000000003
aF6719.9799999999996
aF8185.7399999999998
aF7787.9799999999996
aF8525.3299999999999
aF8663.4699999999993
aF5217.0699999999997
aF7130.2200000000003
aF6061.9399999999996
aF7574.8100000000004
aF6189.3900000000003
aF7124.8999999999996
aF6408.79
aF7238.29
aF6053.3800000000001
aF5570.21
aF6953.8900000000003
aF6730.1099999999997
aF6580.1499999999996
aF7372.6899999999996
aF7658.3599999999997
aF6559.8199999999997
aF8330.2900000000009
aF6796.6800000000003
aF8017.0600000000004
aF7080.9300000000003
aF7000.8500000000004
aF7324.2600000000002
aF6706.4799999999996
aF6300.2399999999998
aF8168.1700000000001
aF6089.3999999999996
aF5668.0100000000002
aF7017.1099999999997
aF7893.3400000000001
aF7106.3900000000003
aF5780.4099999999999
aF7564.6300000000001
aF9700.4899999999998
aF8956.5599999999995
aF6371.21
aF7931.5200000000004
aF8454.6599999999999
aF9724.8799999999992
aF8010.4499999999998
aF8687.8400000000001
aF8161.0100000000002
aF7460.1999999999998
aF6433.3699999999999
aF7622.6599999999999
aF5943.6599999999999
aF7807.1300000000001
aF7748.8599999999997
aF9848.7099999999991
aF7814.1199999999999
aF8054.25
aF8446.1499999999996
aF7460.6499999999996
aF6349.1099999999997
aF7114.4499999999998
aF7266.21
aF7790.6599999999999
aF7887.54
aF8704.8799999999992
aF7263.3299999999999
aF8102.9200000000001
aF7408.9499999999998
aF6724.6199999999999
aF6014.3599999999997
aF6840.6899999999996
aF6220.0799999999999
aF6285.7200000000003
aF10122.1
aF6321.46
aF6325.5799999999999
aF8203.0200000000004
aF5934.8599999999997
aF8253
aF5864.8100000000004
aF6624.5100000000002
aF8728.7199999999993
aF7309.3599999999997
aF8446.1000000000004
aF6282.1599999999999
aF6047.79
aF6447.79
aF9197
aF6386.75
aF7406.4099999999999
aF6920.4200000000001
aF5630.1499999999996
aF5762.7700000000004
aF6477.8299999999999
aF7494.6800000000003
aF8249.6800000000003
aF8177.5500000000002
aF5856.5799999999999
aF6476.0100000000002
aF6131.04
aF6050.2700000000004
aF8689.7700000000004
aF6355.5900000000001
aF7631.79
aF8103.5600000000004
aF8009.6700000000001
aF7350.1400000000003
aF7533.9099999999999
aF6299.0600000000004
aF7447.4700000000003
aF6797.04
aF7305.6199999999999
aF6903.3900000000003
aF6558.3199999999997
aF7217.75
aF7364.3500000000004
aF7044.3699999999999
aF5991.3599999999997
aF5554.8599999999997
aF7532.6499999999996
aF7353.75
aF6514.9899999999998
aF6955.5799999999999
aF6729.8299999999999
aF7480.25
aF8059.1300000000001
aF8563.6200000000008
aF7995.3000000000002
aF7404.6899999999996
aF7560.6599999999999
aF7325.9300000000003
aF6852.3000000000002
aF6174.6199999999999
aF7103.6999999999998
aF5584.5600000000004
aF7823.1199999999999
aF7697.3900000000003
aF7161.6000000000004
aF7250.6300000000001
aF8687.1700000000001
aF6494.3900000000003
aF6959.6999999999998
aF7564.9300000000003
aF5618.4799999999996
aF7084.1599999999999
aF8550.2000000000007
aF5590.4899999999998
aF8121.6800000000003
aF9051.1100000000006
aF7703.8599999999997
aF7544.9399999999996
aF7267.6800000000003
aF6175.3900000000003
aF6845.1400000000003
aF6329.1499999999996
aF6970.2399999999998
aF7211.5100000000002
aF8112.3199999999997
aF7270.71
aF7413.2700000000004
aF9813.3500000000004
aF13067.4
aF7416.5100000000002
aF6938.3199999999997
aF6055.8900000000003
aF6957.6099999999997
aF9677.3700000000008
aF7353.9899999999998
aF6817.6400000000003
aF7412.9499999999998
aF8087.0900000000001
aF7298.6400000000003
aF7175.2299999999996
aF5630.1700000000001
aF8070.9799999999996
aF8739.25
aF7163.8299999999999
aF7178.0900000000001
aF7310.7600000000002
aF5759.6400000000003
aF6930.9799999999996
aF7154.6099999999997
aF8232.3899999999994
aF6999.04
aF7511.8599999999997
aF6964.4399999999996
aF9215.7600000000002
aF8593.1700000000001
aF6627.9499999999998
aF6351.4899999999998
aF6603.1499999999996
aF6569.75
aF7661.8800000000001
aF6380.6599999999999
aF5815.9200000000001
aF6453.1099999999997
aF10200.5
aF5048.2600000000002
aF6137.0600000000004
aF6541.8000000000002
aF10511.299999999999
aF6820.9799999999996
aF6226.4799999999996
aF9055.2000000000007
aF6999.6400000000003
aF8291.1900000000005
aF9437.1599999999999
aF7072.8000000000002
aF7016.3800000000001
aF8619.3500000000004
aF7116.5200000000004
aF8880.7299999999996
aF6993.6300000000001
aF7064.0299999999997
aF7289.0500000000002
aF7298.3999999999996
aF8452.5499999999993
aF7954.3100000000004
aF6174.6999999999998
aF6910.0799999999999
aF6423.0600000000004
aF6744.4700000000003
aF6987.3400000000001
aF11316.1
aF6908.5799999999999
aF5059.6700000000001
aF9569.5900000000001
aF7888.9899999999998
aF5856.1899999999996
aF6855.6499999999996
aF6214.9499999999998
aF7694.2600000000002
aF5458.4399999999996
aF7082.1400000000003
aF6618.3999999999996
aF7250.6700000000001
aF5707.1099999999997
aF6617.5600000000004
aF9476.3600000000006
aF8326.1800000000003
aF7013.5
aF7955.4499999999998
aF8737.4400000000005
aF8151.4799999999996
aF8858.9300000000003
aF6202.1000000000004
aF7276.6599999999999
aF7577.4700000000003
aF7220.2600000000002
aF8500.3500000000004
aF6905.0799999999999
aF7723.6300000000001
aF7590.96
aF7295.4399999999996
aF9001.4899999999998
aF6584.1800000000003
aF8349.3099999999995
aF7850.04
aF5722.6800000000003
aF6732.3500000000004
aF9661.9699999999993
aF8268.4899999999998
aF7701.1999999999998
aF5367.5
aF6988.9700000000003
aF6965.7700000000004
aF8223.8400000000001
aF7959.1000000000004
aF6840.8299999999999
aF7724.5100000000002
aF5732.8100000000004
aF7043.5200000000004
aF6831.0799999999999
aF7046.2299999999996
aF6431.0699999999997
aF7972.3699999999999
aF7874.8400000000001
aF7196.25
aF6865.5900000000001
aF6315.8599999999997
aF6006.8000000000002
aF7145.3999999999996
aF8017.0900000000001
aF10876.4
aF6065.8500000000004
aF7045.4899999999998
aF7696.8599999999997
aF7035.2700000000004
aF7224.3999999999996
aF5543.5100000000002
aF7264.4300000000003
aF8149.9099999999999
aF6692.3800000000001
aF7793.5
aF7972.1599999999999
aF7830.2600000000002
aF6409.4300000000003
aF8207.9500000000007
aF8782.8600000000006
aF7760.6700000000001
aF6409.6700000000001
aF8099.4300000000003
aF6601.6499999999996
aF6840.1700000000001
aF6572.0900000000001
aF7681.6400000000003
aF8011.6499999999996
aF7713.3800000000001
aF9567
aF7972.2399999999998
aF8564.2000000000007
aF6813.5
aF6620.3599999999997
aF6463.6099999999997
aF6400.4399999999996
aF6151.8299999999999
aF7255.5100000000002
aF6635.4799999999996
aF7233.6999999999998
aF5644.1199999999999
aF7196.46
aF7181.8699999999999
aF7644
aF7246.0799999999999
aF6375.9200000000001
aF8492.4799999999996
aF8492.5699999999997
aF6725.8100000000004
aF6050.1499999999996
aF6762.3500000000004
aF6068.3800000000001
aF5232.46
aF6990.8900000000003
aF6844.5
aF5023.6199999999999
aF7059.6800000000003
aF8141.0900000000001
aF7024.3699999999999
aF8213.3099999999995
aF5983.71
aF5651.6999999999998
aF7025
aF6323.4700000000003
aF7187.6099999999997
aF6518.1400000000003
aF8046.3400000000001
aF8101.04
aF6104.3999999999996
aF5979.0900000000001
aF6878.6199999999999
aF7545.9700000000003
aF7839.6000000000004
aF6919.2799999999997
aF7615.3599999999997
aF7096.4300000000003
aF7475.5100000000002
aF6720.8100000000004
aF6243.3599999999997
aF9920.8899999999994
aF7438.9799999999996
aF6153.8299999999999
aF6664.6300000000001
aF7512.0100000000002
aF8524.4599999999991
aF6647.6599999999999
aF7245.5699999999997
aF6628.25
aF6477.6000000000004
aF8008.1099999999997
aF7546.9399999999996
aF5853.7200000000003
aF7130.6000000000004
aF7293.4300000000003
aF7349.96
aF8215.8400000000001
aF6538.6599999999999
aF8369.7700000000004
aF7603.7200000000003
aF6012.4700000000003
aF6058.4899999999998
aF9430.8299999999999
aF6510.1099999999997
aF6473.1199999999999
aF6404.1300000000001
aF8612.3999999999996
aF6814.6999999999998
aF7409.2600000000002
aF7498.7399999999998
aF7875.5299999999997
aF7618.3699999999999
aF5563.0299999999997
aF13462.1
aF5871.3100000000004
aF6133.9799999999996
aF7260.2200000000003
aF7554.8299999999999
aF5964.1599999999999
aF8884.1599999999999
aF8308.3799999999992
aF6050.5299999999997
aF7379.6800000000003
aF6997.0200000000004
aF6897.54
aF7592.0600000000004
aF6125.3599999999997
aF6021.9300000000003
aF7590.1400000000003
aF8322.5599999999995
aF6879.1700000000001
aF7690.8000000000002
aF7371.4700000000003
aF7589.3599999999997
aF7975.6000000000004
aF6598.5600000000004
aF6724.3400000000001
aF6857.6599999999999
aF6514.6800000000003
aF7066.1499999999996
aF7239.1700000000001
aF6648.4799999999996
aF7945.1300000000001
aF6574.3299999999999
aF8458.4400000000005
aF8433.3799999999992
aF5495.4399999999996
aF6106.2399999999998
aF8734.2299999999996
aF7145.0900000000001
aF6898.6899999999996
aF8057.9099999999999
aF7804.8599999999997
aF7506.75
aF7300.9799999999996
aF8783.0599999999995
aF7014.2200000000003
aF7331.9099999999999
aF10064.200000000001
aF6766.6800000000003
aF7528.0600000000004
aF7500.0699999999997
aF8896.1499999999996
aF6005.29
aF8915.6700000000001
aF6895.6499999999996
aF8172.2299999999996
aF6109.0299999999997
aF8788.1700000000001
aF6995.71
aF7033.54
aF9188.8199999999997
aF6746.4099999999999
aF6792.46
aF6370.96
aF7480.4200000000001
aF5884.8599999999997
aF8269.5100000000002
aF7133.2600000000002
aF5963.9099999999999
aF7822.1199999999999
aF6032.4799999999996
aF6834.6400000000003
aF7779.3400000000001
aF6627.0500000000002
aF5794.7299999999996
aF6418.1499999999996
aF6300.5200000000004
aF6111.5699999999997
aF7385.6999999999998
aF6547.6499999999996
aF6753.5600000000004
aF7418.9200000000001
aF7068.5900000000001
aF11750.299999999999
aF5850.1899999999996
aF7235.2700000000004
aF7534.6999999999998
aF7332.8299999999999
aF7741.9099999999999
aF7699.4799999999996
aF7091.6800000000003
aF7832.4899999999998
aF8132.1700000000001
aF6504.5
aF8197.7099999999991
aF6181.2200000000003
aF8563.2999999999993
aF7430.3299999999999
aF7545.9200000000001
aF5243.2200000000003
aF8610.1100000000006
aF6215.9099999999999
aF6495.1000000000004
aF6557.6499999999996
aF6719.4799999999996
aF7149.1499999999996
aF6454.1599999999999
aF7760.8299999999999
aF5595.54
aF6706.1099999999997
aF8276.5300000000007
aF5947.8800000000001
aF7495.9499999999998
aF6750.8100000000004
aF7033.4200000000001
aF6658.0900000000001
aF7358.6499999999996
aF7924.8000000000002
aF8271.9599999999991
aF8451.3400000000001
aF5906.8199999999997
aF7424.1400000000003
aF8181.2399999999998
aF5609.9399999999996
aF7110.5299999999997
aF8361.4599999999991
aF6387.3100000000004
aF7789.2399999999998
aF7903.1499999999996
aF6372.1599999999999
aF6614.96
aF8351.7299999999996
aF8207.1399999999994
aF8151.0200000000004
aF6398.1499999999996
aF7003.04
aF9302.4899999999998
aF6631.6499999999996
aF8259.9799999999996
aF7309.5299999999997
aF7816.8199999999997
aF9510.6800000000003
aF8155.0299999999997
aF7352.6099999999997
aF7584.21
aF7926.6400000000003
aF5998.7200000000003
aF7366.6300000000001
aF5926.3299999999999
aF7018.8699999999999
aF6714.4300000000003
aF7445.0299999999997
aF7026.1700000000001
aF8655.4699999999993
aF6598.5699999999997
aF6348.71
aF9760.1299999999992
aF7749
aF9616.9300000000003
aF7769.0200000000004
aF7923.25
aF6903.25
aF6986.3000000000002
aF7310.3199999999997
aF7655.5
aF8685.1100000000006
aF6839.2299999999996
aF8475.6100000000006
aF10829.1
aF8494.3099999999995
aF5623.79
aF6286.5900000000001
aF6216.1499999999996
aF8409.1000000000004
aF7697.4300000000003
aF6627.8100000000004
aF6369.2399999999998
aF8295.0599999999995
aF6500.21
aF7561.75
aF7748.9399999999996
aF8578.1100000000006
aF5917.2600000000002
aF6398.8699999999999
aF8851.0200000000004
aF7680.71
aF8185.6599999999999
aF6449.8299999999999
aF7834.4399999999996
aF7484.0699999999997
aF6500.8800000000001
aF7228.5
aF6567.9899999999998
aF6465.6400000000003
aF7464.3100000000004
aF6775.5600000000004
aF7506.6400000000003
aF6837.54
aF8141.2200000000003
aF7476.0500000000002
aF6575.6199999999999
aF7536.5699999999997
aF7347.6199999999999
aF7187.1700000000001
aF7278.9099999999999
aF6820.9300000000003
aF7904.1400000000003
aF7665.6099999999997
aF6173.0200000000004
aF6520.6899999999996
aF7188.9899999999998
aF7449.5699999999997
aF8357.8700000000008
aF7512.96
aF5981.6400000000003
aF7425.4799999999996
aF5769.0500000000002
aF7422.3900000000003
aF9106.7999999999993
aF7115.6199999999999
aF5820.8299999999999
aF6920.71
aF6182.9700000000003
aF6427.5699999999997
aF6008.4200000000001
aF8889.3700000000008
aF9359.0699999999997
aF7656.8299999999999
aF6927.1300000000001
aF9409.1700000000001
aF7423.9399999999996
aF7384.1700000000001
aF7344.4700000000003
aF8089.04
aF9509.6499999999996
aF7927.2399999999998
aF7319.29
aF7483.1999999999998
aF6917.7799999999997
aF6208.2299999999996
aF7661.1099999999997
aF7215.6599999999999
aF10630.5
aF7526.54
aF5637.8699999999999
aF9460.75
aF7718.9499999999998
aF7917.3500000000004
aF6403.7799999999997
aF6011.4799999999996
aF7474.75
aF6048.0500000000002
aF6630.0600000000004
aF8059.2299999999996
aF7427.2600000000002
aF7836.3500000000004
aF6264.0299999999997
aF7036.3999999999996
aF5893.6000000000004
aF7255.0200000000004
aF6929.7299999999996
aF7966.7399999999998
aF7754.7399999999998
aF7435.75
aF7120.0299999999997
aF6810.4399999999996
aF6896.9700000000003
aF6529.8400000000001
aF8528.5900000000001
aF6545.9700000000003
aF6642.2200000000003
aF8793.8899999999994
aF7778.7600000000002
aF7124.5299999999997
aF6322.7799999999997
aF7167.7600000000002
aF7642.3500000000004
aF7982.96
aF5638.6599999999999
aF7466.9099999999999
aF7752.7700000000004
aF7473.3800000000001
aF6875.7299999999996
aF8154.8999999999996
aF9892.9200000000001
aF8266.7900000000009
aF8377.1900000000005
aF7004.9300000000003
aF7471.25
aF6355.1400000000003
aF7212.6400000000003
aF6873.8999999999996
aF8092.4700000000003
aF6781.3299999999999
aF8115.4499999999998
aF7725.3900000000003
aF6829.5200000000004
aF9815.3999999999996
aF12929.1
aF5934.3900000000003
aF6842.4300000000003
aF8659.9500000000007
aF6902.6300000000001
aF6520.46
aF6288.6099999999997
aF7712.0600000000004
aF8876.2299999999996
aF7141.3599999999997
aF6584.5500000000002
aF6942.8999999999996
aF6134.6800000000003
aF6279.4799999999996
aF5921.1800000000003
aF8238.2199999999993
aF8538.3999999999996
aF8236.1299999999992
aF6462.0500000000002
aF8942.9300000000003
aF6750.46
aF7257.5900000000001
aF8014.29
aF6959.21
aF7363.5799999999999
aF8406.2600000000002
aF7393.3299999999999
aF8196.8999999999996
aF7842.8699999999999
aF10637
aF6975.7700000000004
aF8715.7900000000009
aF6392.5500000000002
aF6419.46
aF8514.5
aF6662.2200000000003
aF7654.9700000000003
aF6337.6599999999999
aF7556.5500000000002
aF6589.71
aF6580.0900000000001
aF6344.7399999999998
aF6729.8500000000004
aF7451.3400000000001
aF6739.3699999999999
aF7523.2200000000003
aF8733.2099999999991
aF7047.8500000000004
aF6980.25
aF4799.1899999999996
aF5358.6300000000001
aF7074.0200000000004
aF7365.3299999999999
aF6688.4200000000001
aF6724.96
aF7353.2600000000002
aF6310.1400000000003
aF7100.3999999999996
aF7176.5299999999997
aF7874.4499999999998
aF6720.9799999999996
aF5556.5900000000001
aF8410.7000000000007
aF6823.0500000000002
aF5786.2600000000002
aF8547.6299999999992
aF6527.0500000000002
aF5737.75
aF8515.3299999999999
aF5938.5
aF7243.0799999999999
aF8083.1499999999996
aF6692.9300000000003
aF8072.7700000000004
aF7640.6599999999999
aF8589.8299999999999
aF7073.7200000000003
aF8250.1700000000001
aF7639.7700000000004
aF7359.3100000000004
aF6620.54
aF7993.7700000000004
aF9771.1700000000001
aF6819.9099999999999
aF7985.3999999999996
aF7798.7700000000004
aF9708.2600000000002
aF7429.5699999999997
aF5000.7700000000004
aF8197.1900000000005
aF7981.1300000000001
aF6002.9300000000003
aF8364.9200000000001
aF7848.5900000000001
aF6270.3500000000004
aF7459.6499999999996
aF8775.0799999999999
aF6596.2799999999997
aF7705.8500000000004
aF7299.3299999999999
aF6733.6499999999996
aF6777.3699999999999
aF7835.2299999999996
aF7580.25
aF7634.7299999999996
aF5255.4799999999996
aF7234.6800000000003
aF7948.4899999999998
aF7372.2799999999997
aF9586.8700000000008
aF6856.6700000000001
aF7588.75
aF6703.7799999999997
aF8038.6700000000001
aF7089.8900000000003
aF8189.2799999999997
aF6271.8900000000003
aF6189.8100000000004
aF9618.4400000000005
aF7298.9700000000003
aF6794.8199999999997
aF8877.5400000000009
aF7572.4300000000003
aF8209.6399999999994
aF8150.2299999999996
aF7401.9399999999996
aF6623.5699999999997
aF6701.0799999999999
aF6711.54
aF6738.79
aF8514.9599999999991
aF6863.6000000000004
aF6909.5600000000004
aF6656.3599999999997
aF9128.8199999999997
aF8349.0300000000007
aF6452.8400000000001
aF6268.04
aF6605.79
aF6838.3800000000001
aF8205.6399999999994
aF6614.5100000000002
aF6757.8000000000002
aF8195.75
aF7751.0699999999997
aF7824.1300000000001
aF8292.9300000000003
aF7519.1199999999999
aF8438.6100000000006
aF6854.54
aF7076.25
aF7179.04
aF7641.9399999999996
aF9245.8299999999999
aF7153.7700000000004
aF6545.9099999999999
aF7726.9700000000003
aF8756.4899999999998
aF5975.75
aF6143.1599999999999
aF7882.5500000000002
aF7001.4300000000003
aF6056.5799999999999
aF7497.8800000000001
aF7804.5799999999999
aF8741.4300000000003
aF7270.46
aF7466.29
aF5743.5799999999999
aF5809.7600000000002
aF7406.6199999999999
aF5736.9700000000003
aF6189.3800000000001
aF8496.8199999999997
aF7719.5500000000002
aF6450.9300000000003
aF5441.9700000000003
aF5872.3800000000001
aF6777.1499999999996
aF7028.4700000000003
aF7368.6700000000001
aF5292.9200000000001
aF6844.0500000000002
aF7074.5
aF6797.3999999999996
aF6933.5200000000004
aF6856.2799999999997
aF7219.0200000000004
aF7128.2399999999998
aF5851.6599999999999
aF6436.5100000000002
aF8046.79
aF6660.71
aF6738.1199999999999
aF6793.54
aF7738.6300000000001
aF7549.3199999999997
aF7017.5200000000004
aF6989.4399999999996
aF8022.2200000000003
aF6207.1300000000001
aF8326.8600000000006
aF8335.0699999999997
aF6553.1700000000001
aF7063.8999999999996
aF7534.3500000000004
aF7919.2700000000004
aF6574.8299999999999
aF6621.6199999999999
aF6880.8500000000004
aF7795.5799999999999
aF7773.1099999999997
aF7692.8599999999997
aF8131
aF8325.8700000000008
aF7870.3900000000003
aF8814.7399999999998
aF6508.6300000000001
aF6828.3100000000004
aF7290.8900000000003
aF7911.6400000000003
aF8628.4500000000007
aF6611.2600000000002
aF7003.0900000000001
aF7152.5
aF7689.6000000000004
aF8228.4300000000003
aF6632.0600000000004
aF8883.25
aF5974.2200000000003
aF7798.2299999999996
aF8094.0799999999999
aF5697.8999999999996
aF6139.5200000000004
aF8331.6800000000003
aF6409.1499999999996
aF6080.7200000000003
aF6508.54
aF7211.3500000000004
aF7009.4499999999998
aF7273.4300000000003
aF7627.2600000000002
aF7487.4799999999996
aF6672.6400000000003
aF6725.6300000000001
aF6228.0600000000004
aF5552.4200000000001
aF6446.8199999999997
aF7649.1700000000001
aF6495.0699999999997
aF8564.8600000000006
aF7904.7200000000003
aF6968.3100000000004
aF6304.5799999999999
aF6972.7200000000003
aF7510.8299999999999
aF6494.46
aF5618.9899999999998
aF6566.3800000000001
aF7651.4899999999998
aF6032.3999999999996
aF6104.6599999999999
aF6766.0299999999997
aF6777.8599999999997
aF6771.75
aF5911.0100000000002
aF6561.4200000000001
aF7225.3100000000004
aF6975.3000000000002
aF6153.6099999999997
aF8043.71
aF6958.1999999999998
aF7242.3199999999997
aF6618.8100000000004
aF5974.0299999999997
aF8894.4400000000005
aF7477
aF7085.79
aF7214.9099999999999
aF6358.3900000000003
aF6178.8500000000004
aF5533.1300000000001
aF7195.9799999999996
aF6240.5299999999997
aF6985.7700000000004
aF6965.4399999999996
aF6428.5
aF7166.8599999999997
aF6978.0500000000002
aF9793.1299999999992
aF6921.3199999999997
aF8011.0600000000004
aF5858.6099999999997
aF8651.3600000000006
aF7078.1800000000003
aF8130.5799999999999
aF9223.4300000000003
aF7031.21
aF6298.3000000000002
aF5230.8699999999999
aF7165.4700000000003
aF6691.6099999999997
aF5831.6800000000003
aF7503.6000000000004
aF6431.9499999999998
aF7380.6499999999996
aF7086.0100000000002
aF7302.8299999999999
aF8434.2099999999991
aF7391.1300000000001
aF9349.0100000000002
aF6212.3000000000002
aF6227.1700000000001
aF9227.2299999999996
aF6274.4899999999998
aF6520.4399999999996
aF6910.3900000000003
aF6009.4899999999998
aF7041.6099999999997
aF6907.6599999999999
aF8222.3899999999994
aF7561.4799999999996
aF7030.3599999999997
aF7371.5699999999997
aF7062.5100000000002
aF8639.3299999999999
aF5621.71
aF7647.6300000000001
aF5835
aF7393.1000000000004
aF7218.6199999999999
aF6849.0699999999997
aF6298.2200000000003
aF6006.1400000000003
aF5837.3400000000001
aF7083.9499999999998
aF7636.7200000000003
aF6590.5299999999997
aF9005.9599999999991
aF7086.75
aF6185.6700000000001
aF7837.2799999999997
aF6545.9200000000001
aF7534.6599999999999
aF7673.25
aF8985.5900000000001
aF7833.9700000000003
aF6421.6000000000004
aF8917.0900000000001
aF7427.4099999999999
aF6720.7399999999998
aF6761.1800000000003
aF7401.3400000000001
aF7044.8599999999997
aF8024.9300000000003
aF8473.4500000000007
aF7064.6099999999997
aF6714.6300000000001
aF7991.8000000000002
aF8011.6800000000003
aF7877.25
aF10365.200000000001
aF7028.2399999999998
aF8230.3400000000001
aF7793.1999999999998
aF6447.9700000000003
aF7772.5
aF6589.0799999999999
aF8146.4899999999998
aF7794.8000000000002
aF6993.75
aF7241.71
aF12346.700000000001
aF6146.21
aF6158.9200000000001
aF9234.6299999999992
aF6813.5900000000001
aF8774.8899999999994
aF8612.4699999999993
aF7530.9700000000003
aF7356.1199999999999
aF7532.1300000000001
aF8780.6200000000008
aF7710.5699999999997
aF6961.6000000000004
aF7084.6199999999999
aF6887.3599999999997
aF7956.5699999999997
aF7389.6000000000004
aF6016.4899999999998
aF8562.6499999999996
aF7599.8999999999996
aF6274.3000000000002
aF7861.9099999999999
aF8460.0499999999993
aF6529.5200000000004
aF6448.0500000000002
aF6093
aF7166.1400000000003
aF7063.1499999999996
aF8066.3999999999996
aF8405.8600000000006
aF8365.3299999999999
aF8085.6099999999997
aF6283.0799999999999
aF7554.25
aF6573.9099999999999
aF6588.6700000000001
aF7383.0900000000001
aF6995.1300000000001
aF7067.5
aF6965.9300000000003
aF7635.4700000000003
aF8265.7099999999991
aF6048.5100000000002
aF7862.0900000000001
aF9234.9799999999996
aF7592.29
aF6145.5699999999997
aF6999.4099999999999
aF8410.8999999999996
aF7519.4099999999999
aF7345.6899999999996
aF8593.0200000000004
aF8270.0300000000007
aF8133.9499999999998
aF8589.3500000000004
aF7520.4700000000003
aF8993.75
aF9726.2999999999993
aF6617.8900000000003
aF5200.1400000000003
aF7516.29
aF6442.7399999999998
aF8318.5200000000004
aF5672.2700000000004
aF7384.5799999999999
aF7010.4899999999998
aF7305.8999999999996
aF9370.5599999999995
aF6109.2600000000002
aF7916
aF7965.8299999999999
aF6885.6300000000001
aF7601.3100000000004
aF7599.4700000000003
aF5825.4200000000001
aF8259.5499999999993
aF5990.1899999999996
aF9745.2999999999993
aF7245.8299999999999
aF6656.1999999999998
aF5713.3999999999996
aF6089.5699999999997
aF7127.7399999999998
aF7303.3400000000001
aF7738.3500000000004
aF6069.2200000000003
aF5715.3900000000003
aF8222.9899999999998
aF7895.8199999999997
aF6942.1300000000001
aF8700.5
aF6497.1099999999997
aF7417.5600000000004
aF6512.3999999999996
aF5424.8800000000001
aF5985.9499999999998
aF9409.5699999999997
aF6797.3999999999996
aF6747.1800000000003
aF8411.6299999999992
aF6114.2200000000003
aF4736.25
aF7355.5900000000001
aF7928.6400000000003
aF6813.1499999999996
aF6266.5200000000004
aF4922.6899999999996
aF7301.5699999999997
aF6334.7200000000003
aF8206.5
aF9126.3199999999997
aF5950.1700000000001
aF6842.8500000000004
aF9009.5900000000001
aF7284.3100000000004
aF7051.5699999999997
aF6740.1000000000004
aF6088.3100000000004
aF7184.3100000000004
aF10431.1
aF6773.0799999999999
aF8173.2399999999998
aF5598.7399999999998
aF7247.6800000000003
aF7913.8299999999999
aF5625.8299999999999
aF6649.1400000000003
aF6811.29
aF7067.5799999999999
aF6948.7299999999996
aF8924.8400000000001
aF7216.1999999999998
aF7066
aF5107.1000000000004
aF7245.7299999999996
aF7667.0500000000002
aF6901.2200000000003
aF5992.6499999999996
aF8151.5600000000004
aF6098.9499999999998
aF8354.9200000000001
aF6937.1599999999999
aF7033.9099999999999
aF7176.0699999999997
aF5966.9899999999998
aF6864.6999999999998
aF7266.1899999999996
aF7019
aF7669.9799999999996
aF9604.5699999999997
aF7216.6099999999997
aF8175.6999999999998
aF6780.21
aF6258.9899999999998
aF6227.79
aF6448.8599999999997
aF7071.1099999999997
aF4903.4099999999999
aF6442.4700000000003
aF11180.299999999999
aF6950.21
aF8288.2199999999993
aF7076.0100000000002
aF6435.6599999999999
aF6946.1700000000001
aF6643.79
aF8721.7299999999996
aF8161.6599999999999
aF6947.0100000000002
aF6378.9300000000003
aF6933.6599999999999
aF5953.8599999999997
aF8959.6800000000003
aF7213.4300000000003
aF7952.1599999999999
aF8405.7999999999993
aF7160.21
aF8145.25
aF11610.5
aF6900.7700000000004
aF7632.1000000000004
aF7390.0799999999999
aF9065.4300000000003
aF6093.4099999999999
aF7565.3699999999999
aF7300.1800000000003
aF7356.5200000000004
aF6734.2299999999996
aF9073.3299999999999
aF7245.6700000000001
aF5605.1700000000001
aF9291.4200000000001
aF5523.6300000000001
aF8541.4599999999991
aF8540.3899999999994
aF8074.6499999999996
aF6833.4499999999998
aF7961.1800000000003
aF7176.0299999999997
aF6816.7799999999997
aF10149.1
aF7035.3900000000003
aF5704.8199999999997
aF9212.8199999999997
aF7576.6000000000004
aF6637.2399999999998
aF7022.7200000000003
aF6599.2799999999997
aF7342.3199999999997
aF6232.79
aF7629.9399999999996
aF7197.8599999999997
aF7791.3999999999996
aF8329.4699999999993
aF8071.3299999999999
aF8783.2299999999996
aF5393.0100000000002
aF8833.2800000000007
aF7690.3400000000001
aF7196.8299999999999
aF5201.4799999999996
aF7685.9700000000003
aF7805.8100000000004
aF8714.0599999999995
aF7210.8199999999997
aF6949.1199999999999
aF7551.9200000000001
aF6079.8599999999997
aF7637.6499999999996
aF8511.2700000000004
aF6394.8000000000002
aF6223.8599999999997
aF7368.7600000000002
aF6601.6999999999998
aF8144.1800000000003
aF8499.8600000000006
aF5227.2200000000003
aF7560.3800000000001
aF7599.9499999999998
aF6844.54
aF6645.1099999999997
aF6966.7200000000003
aF7797.4200000000001
aF6193.3900000000003
aF8259.4099999999999
aF7820.7200000000003
aF7940.3999999999996
aF5127.3999999999996
aF7743.6999999999998
aF7820.79
aF7999.5299999999997
aF8050.9499999999998
aF8127.4799999999996
aF8906.5400000000009
aF7745.6000000000004
aF6729.4399999999996
aF7505.0799999999999
aF6808.6099999999997
aF6290.3400000000001
aF8855.7800000000007
aF7433.04
aF6908.2600000000002
aF6075.8800000000001
aF7046.8599999999997
aF6755.5900000000001
aF6920.0699999999997
aF6683.6400000000003
aF8792.6200000000008
aF6334.5799999999999
aF6214
aF8412.6800000000003
aF7853.2700000000004
aF7559.3400000000001
aF7135.4200000000001
aF8654.7299999999996
aF7679.8199999999997
aF6904.6499999999996
aF8183.4700000000003
aF8038.5600000000004
aF7496.6300000000001
aF7784.71
aF6833.3199999999997
aF6719.5900000000001
aF6767.1000000000004
aF8761.7399999999998
aF8369.4300000000003
aF6795.7600000000002
aF8099.5200000000004
aF8436.7199999999993
aF7562.6700000000001
aF8454.2700000000004
aF7142.9499999999998
aF6215.9399999999996
aF8156.7600000000002
aF6329.1700000000001
aF6670
aF7358.3699999999999
aF7152.4399999999996
aF6032.0200000000004
aF5197.1999999999998
aF8235.1299999999992
aF8363.5900000000001
aF6026.0100000000002
aF9149.9699999999993
aF7723.5900000000001
aF5817.4700000000003
aF6680.8800000000001
aF6318.6599999999999
aF6946.2600000000002
aF7812.3699999999999
aF6790.6400000000003
aF8378.6499999999996
aF7237.8900000000003
aF8562.9300000000003
aF8275.4099999999999
aF8395.2900000000009
aF7439.4499999999998
aF7457.4099999999999
aF5821.4700000000003
aF7382.7299999999996
aF6645.79
aF5745.5500000000002
aF7259.2700000000004
aF6331.8299999999999
aF7857.8000000000002
aF7343.8999999999996
aF5646.71
aF7275.6599999999999
aF9868.6100000000006
aF7954.96
aF6525.0100000000002
aF6951.0799999999999
aF6957
aF8490.7000000000007
aF10047.299999999999
aF6959.9300000000003
aF8056.21
aF8913.9200000000001
aF7307.4099999999999
aF7674.4300000000003
aF8599.6299999999992
aF7922.5299999999997
aF7427.54
aF7244.3400000000001
aF6272.1599999999999
aF7204.6700000000001
aF7929.7299999999996
aF4999.8999999999996
aF5566.5699999999997
aF7014.4099999999999
aF7529.2299999999996
aF7554.4700000000003
aF5806.8900000000003
aF7070.3100000000004
aF6426.3599999999997
aF6508.9300000000003
aF7671.8100000000004
aF7905.3999999999996
aF7146.8699999999999
aF6264.8699999999999
aF7839.1199999999999
aF6908.21
aF7873.5200000000004
aF4810.7200000000003
aF6451.2799999999997
aF5271.7700000000004
aF7190.1199999999999
aF6412.8900000000003
aF6532.3299999999999
aF7821.4099999999999
aF7655.4300000000003
aF7427.8900000000003
aF8982.9300000000003
aF6250.5699999999997
aF6895.3500000000004
aF7377.5100000000002
aF8085.4399999999996
aF7470.4499999999998
aF6556.0500000000002
aF5864.3500000000004
aF7814.3299999999999
aF6983.8199999999997
aF6096.8699999999999
aF6573.1999999999998
aF6408.5299999999997
aF7708.3500000000004
aF7023.9099999999999
aF8010.04
aF8284.7199999999993
aF7941.6300000000001
aF7437.1300000000001
aF5459.8900000000003
aF6397.3800000000001
aF7426.9700000000003
aF9213.4599999999991
aF7852.1999999999998
aF7680.1599999999999
aF7024.0299999999997
aF5822.6599999999999
aF7592.96
aF6843.5500000000002
aF8092.3800000000001
aF7030.6700000000001
aF11635.200000000001
aF6346.4499999999998
aF6795.7299999999996
aF7684.5900000000001
aF7700.8299999999999
aF7170.3500000000004
aF5762.3299999999999
aF8324.7299999999996
aF7741.7700000000004
aF6340.6300000000001
aF6645.8900000000003
aF6771.8000000000002
aF8254.4799999999996
aF6040.3100000000004
aF7635.75
aF6156.3299999999999
aF6633.1499999999996
aF6471.4099999999999
aF9604.0699999999997
aF7674.8299999999999
aF7722.8999999999996
aF6714.0299999999997
aF7065.5600000000004
aF7246.9700000000003
aF6150.0799999999999
aF7247.1300000000001
aF7248.8699999999999
aF9075.7600000000002
aF11103.700000000001
aF7151.21
aF7801.6899999999996
aF5361.46
aF7512.3699999999999
aF6866.3500000000004
aF6429.1000000000004
aF6664.9300000000003
aF7600.0299999999997
aF6387.1800000000003
aF6943.1099999999997
aF6023.2700000000004
aF7131.6000000000004
aF8955.5400000000009
aF6482.25
aF6725.7399999999998
aF6414.0200000000004
aF7018.04
aF9019.6000000000004
aF8652.0799999999999
aF7059.1000000000004
aF10955.4
aF6490.1700000000001
aF9202.1100000000006
aF6407.6400000000003
aF6727.8000000000002
aF7878.2700000000004
aF6901.4700000000003
aF7290.8000000000002
aF7852.8599999999997
aF7469.5799999999999
aF6372.5900000000001
aF6949.2200000000003
aF7863.8900000000003
aF8281.9400000000005
aF7507.79
aF6385.3900000000003
aF8013.1300000000001
aF6705.2600000000002
aF7145.8699999999999
aF6858.1400000000003
aF7061.9700000000003
aF6713
aF5539.4099999999999
aF6208.1700000000001
aF7015.29
aF6759.8800000000001
aF7319.75
aF6131.9200000000001
aF6134.8699999999999
aF7880.1700000000001
aF6142.3100000000004
aF8654.2099999999991
aF7267.7399999999998
aF6530.7600000000002
aF5607.9300000000003
aF6611.3299999999999
aF7115.9899999999998
aF7616.1800000000003
aF7167.0799999999999
aF6136.3900000000003
aF8098.8199999999997
aF6786.3500000000004
aF7966.3000000000002
aF8291.2000000000007
aF8327.3600000000006
aF6862.3299999999999
aF5017.25
aF7059.6199999999999
aF5660.0900000000001
aF6218.8299999999999
aF7772.9700000000003
aF10413.700000000001
aF6733.21
aF5955.4799999999996
aF7111.1499999999996
aF6221.4300000000003
aF6453.8400000000001
aF7749.4399999999996
aF6059.54
aF8287.5599999999995
aF6718.5200000000004
aF7269.4499999999998
aF6219.9899999999998
aF7877.3800000000001
aF7620.9099999999999
aF8048.4300000000003
aF6305.54
aF6669.3100000000004
aF8596
aF7222.2399999999998
aF7801.8199999999997
aF6598.5
aF6404.8800000000001
aF9464.7999999999993
aF6701.8599999999997
aF5688.4399999999996
aF6186.3000000000002
aF5170.3500000000004
aF6848.3100000000004
aF8884.0300000000007
aF9684.3500000000004
aF9841.1599999999999
aF6613.7399999999998
aF7535.7299999999996
aF6187.3900000000003
aF8097.1599999999999
aF7756.0200000000004
aF9143.3999999999996
aF5967.8800000000001
aF6296.25
aF7964.3900000000003
aF7794.4899999999998
aF6404.8599999999997
aF6268.0600000000004
aF7962.5200000000004
aF5991.3500000000004
aF6975.1800000000003
aF7595.1599999999999
aF6331.8299999999999
aF6892.9399999999996
aF8621.25
aF6615.9700000000003
aF6186.96
aF7649.7200000000003
aF8209.3700000000008
aF7638.9300000000003
aF8076.1099999999997
aF6281.9499999999998
aF6538.0200000000004
aF8140.29
aF6796.4300000000003
aF8360.1299999999992
aF5323.3100000000004
aF7225.96
aF7177.6800000000003
aF8676.7000000000007
aF7625.2200000000003
aF6642.6499999999996
aF8260.1800000000003
aF8242.9200000000001
aF9525.4400000000005
aF7004.1199999999999
aF8147.1599999999999
aF6193.1899999999996
aF8898.2099999999991
aF8062.9099999999999
aF6102.5799999999999
aF7525.79
aF7705.1899999999996
aF7146.2799999999997
aF6796.3100000000004
aF7658.8199999999997
aF7358.8599999999997
aF6178.6199999999999
aF7519.1400000000003
aF7069.7700000000004
aF6381.8999999999996
aF6933.4300000000003
aF7893.21
aF7119.1599999999999
aF7639.9499999999998
aF6188.7700000000004
aF6894.8999999999996
aF7675.2700000000004
aF6476.6899999999996
aF7542.9200000000001
aF6145.5200000000004
aF8690.0799999999999
aF7422.25
aF7172.3100000000004
aF7649.0500000000002
aF7104.54
aF6369.5100000000002
aF7898.1899999999996
aF7088.0200000000004
aF5548.2600000000002
aF7867.8699999999999
aF6589.96
aF6630.6499999999996
aF6429.9300000000003
aF6803.7700000000004
aF6163.04
aF7053.0299999999997
aF6340.6499999999996
aF7671.3100000000004
aF8096.9399999999996
aF7799.29
aF6707.4899999999998
aF9412.9200000000001
aF7458.4799999999996
aF7915.3599999999997
aF5988.71
aF5689.3199999999997
aF6378.8500000000004
aF6578.1099999999997
aF5973.04
aF7856.3800000000001
aF7248.6599999999999
aF7947.0500000000002
aF8155.5200000000004
aF7093.5900000000001
aF6797.1199999999999
aF7171.2299999999996
aF7521.3000000000002
aF7513.2200000000003
aF5831.9799999999996
aF6946.7700000000004
aF8134.6499999999996
aF7313.3999999999996
aF7854.46
aF7044.8999999999996
aF7878.4499999999998
aF6469.8400000000001
aF6306.3000000000002
aF5327.71
aF6442.5200000000004
aF8966.6000000000004
aF6906.46
aF7689.5699999999997
aF9317.6100000000006
aF8007.0900000000001
aF8209.1599999999999
aF7131.9799999999996
aF6147.3400000000001
aF7101.6099999999997
aF6976.1199999999999
aF10157.799999999999
aF9334.3400000000001
aF7033.7799999999997
aF7653.8400000000001
aF6576.5900000000001
aF5878.7600000000002
aF5919.5200000000004
aF5792.3500000000004
aF7340.7700000000004
aF8514.9200000000001
aF5628.5299999999997
aF7693.6199999999999
aF5917.0100000000002
aF6314.8900000000003
aF6716.96
aF5888.1599999999999
aF7056.1899999999996
aF7264.9899999999998
aF7249.3699999999999
aF5658.1999999999998
aF7760.3900000000003
aF8591.8700000000008
aF6091.3400000000001
aF8117.0500000000002
aF7265.1000000000004
aF6129.3000000000002
aF7612.3599999999997
aF7609.4200000000001
aF6655.0699999999997
aF6941.9399999999996
aF6260.79
aF7069.2299999999996
aF7053.04
aF7540.6099999999997
aF6344.3800000000001
aF6556.3699999999999
aF4858.7200000000003
aF9185.6700000000001
aF5355.0900000000001
aF6500.8199999999997
aF6889.8000000000002
aF6892.9200000000001
aF8674.1100000000006
aF7964.1300000000001
aF7029.8699999999999
aF6443.0799999999999
aF6141.4499999999998
aF6797.3500000000004
aF5545.0900000000001
aF7173.0200000000004
aF7016.2700000000004
aF8025.0900000000001
aF6055.7200000000003
aF9243.4599999999991
aF7855.0699999999997
aF7566.6199999999999
aF7546.8199999999997
aF7991.2700000000004
aF8885.3999999999996
aF6752.2299999999996
aF7025.04
aF7291.8299999999999
aF7886.8100000000004
aF7086.3800000000001
aF6589.1099999999997
aF6176.5600000000004
aF8458.9099999999999
aF6853.8800000000001
aF7600.8299999999999
aF6751.6499999999996
aF6756.7399999999998
aF8279.0300000000007
aF7223.5600000000004
aF8266.2800000000007
aF5922.4399999999996
aF6438.8000000000002
aF7471.6800000000003
aF5141.5799999999999
aF7633.3500000000004
aF5559.7399999999998
aF7220.4799999999996
aF8150.9799999999996
aF6971.9399999999996
aF6734.6000000000004
aF8609.8799999999992
aF8492.1800000000003
aF8745.3199999999997
aF7767.54
aF6888.5
aF6573.79
aF6336.2700000000004
aF6526.5799999999999
aF7199.8599999999997
aF9733.1299999999992
aF7042.4899999999998
aF6916.5500000000002
aF7513.5200000000004
aF7378.5500000000002
aF7692.5200000000004
aF9007.0799999999999
aF5982.3800000000001
aF5910.71
aF6387.1099999999997
aF7443.5100000000002
aF6961.04
aF7026.7200000000003
aF7076.25
aF8055.54
aF7326.5100000000002
aF8004.9399999999996
aF6632.4399999999996
aF5404.2399999999998
aF5706.0699999999997
aF9177.0300000000007
aF7513.2600000000002
aF8075.1400000000003
aF8071.4499999999998
aF8215.3899999999994
aF7508.8100000000004
aF8171.0200000000004
aF7703.8299999999999
aF7047.0500000000002
aF7644.2600000000002
aF9709.8199999999997
aF6542.8000000000002
aF7792.0900000000001
aF6616.71
aF6368.8599999999997
aF5794.54
aF7306.3000000000002
aF6579.2799999999997
aF8717.5300000000007
aF6276.6499999999996
aF6856.9399999999996
aF6505.9799999999996
aF5854.2200000000003
aF7794.5299999999997
aF5832.6199999999999
aF6790.3900000000003
aF8851.3500000000004
aF6962.25
aF6879.8299999999999
aF6878.54
aF6113.5799999999999
aF7921.1099999999997
aF7057.8400000000001
aF6869.1199999999999
aF5300.7600000000002
aF6785.1099999999997
aF6760.4300000000003
aF9491.1399999999994
aF6556.4399999999996
aF8131.5600000000004
aF7258.6199999999999
aF6975.1700000000001
aF8133.9799999999996
aF7024.1999999999998
aF7215.6000000000004
aF6490.9899999999998
aF6751.0900000000001
aF7420.1800000000003
aF6314.4300000000003
aF7916.96
aF6362.3800000000001
aF7586.4099999999999
aF8078.0900000000001
aF7568.6199999999999
aF9457.3299999999999
aF6169.8800000000001
aF7039.4399999999996
aF6750.6999999999998
aF8674.3700000000008
aF7680.7700000000004
aF7122.8699999999999
aF9703.7800000000007
aF6979.4200000000001
aF8425.9099999999999
aF6314.1800000000003
aF9237.25
aF7206.3299999999999
aF6177.54
aF7677.0299999999997
aF7463.8800000000001
aF8253.3299999999999
aF6672.9700000000003
aF6978.8199999999997
aF6395.3999999999996
aF8659.2900000000009
aF5901.1800000000003
aF7481.4399999999996
aF7256.5799999999999
aF8083.1800000000003
aF9179.4599999999991
aF6847.7399999999998
aF6708.9799999999996
aF7900.8000000000002
aF8329.7800000000007
aF7956.8299999999999
aF8064.1199999999999
aF6785.9099999999999
aF8586.6100000000006
aF5598.9300000000003
aF7118.3699999999999
aF6147.8599999999997
aF7512.3599999999997
aF6649.1000000000004
aF8497.9599999999991
aF6072.5799999999999
aF7847.4700000000003
aF6334.9099999999999
aF7570.4300000000003
aF9137.6200000000008
aF7036.2600000000002
aF7189.1000000000004
aF7037.8299999999999
aF7959.4499999999998
aF7921.7700000000004
aF8869.6100000000006
aF6392.7600000000002
aF9801.6900000000005
aF6944.0200000000004
aF6485.3199999999997
aF7566.96
aF6784.4899999999998
aF8237.2999999999993
aF7970.2799999999997
aF7155.3900000000003
aF6908.2799999999997
aF7440.0200000000004
aF6366.6899999999996
aF6789.9899999999998
aF7279.6199999999999
aF8463.0499999999993
aF7237.21
aF6982.1099999999997
aF7130.5500000000002
aF6877.7399999999998
aF7048.8800000000001
aF6321.96
aF8207.2099999999991
aF7938.1800000000003
aF5648.29
aF8154.6899999999996
aF6796.1599999999999
aF6675.0100000000002
aF7194.2799999999997
aF8143.1899999999996
aF6010.0100000000002
aF5535.6999999999998
aF6507.3500000000004
aF7322.04
aF6549.6599999999999
aF6685.0699999999997
aF8449.5900000000001
aF6647.0900000000001
aF6439.9499999999998
aF7211.7399999999998
aF8272.4899999999998
aF6846.4300000000003
aF6843.3599999999997
aF8353.5200000000004
aF7764.3299999999999
aF7381.4700000000003
aF7176
aF8172.79
aF6095.2700000000004
aF6680.29
aF6361.71
aF5346.54
aF6882.7399999999998
aF6560.8400000000001
aF7934.7600000000002
aF5998.0900000000001
aF7645.9200000000001
aF8753.1900000000005
aF6937.8699999999999
aF7553.5299999999997
aF6286.6899999999996
aF7216.6999999999998
aF6851.3199999999997
aF7452.8000000000002
aF5398.54
aF6184.0299999999997
aF5616.1700000000001
aF8314.5699999999997
aF6072.3699999999999
aF7392.5600000000004
aF7695.8500000000004
aF8710.3799999999992
aF6607.5699999999997
aF7667.79
aF8256.2199999999993
aF7130.2299999999996
aF7016.8900000000003
aF7377.25
aF5863.4399999999996
aF8230.5699999999997
aF6580.8000000000002
aF9926.6299999999992
aF12278.9
aF7886.3699999999999
aF7577.4099999999999
aF5904.9200000000001
aF7033.21
aF8253.4300000000003
aF7931.3000000000002
aF6661.5799999999999
aF6742.1800000000003
aF8919.8600000000006
aF6673.0900000000001
aF6365.8299999999999
aF7509.5799999999999
aF5800.5699999999997
aF8501.4099999999999
aF9148.7600000000002
aF7557.7600000000002
aF7431.5500000000002
aF7212.8400000000001
aF7445.7399999999998
aF7827.3599999999997
aF7375.7299999999996
aF5820.21
aF6790.1000000000004
aF7922.5600000000004
aF7741.9499999999998
aF7347.3900000000003
aF5781.5
aF7263.6999999999998
aF8169.0799999999999
aF7215.8100000000004
aF8500.5799999999999
aF7026.2600000000002
aF8141.8000000000002
aF8137.3500000000004
aF8054.6999999999998
aF8330.7000000000007
aF6805.4200000000001
aF6621.6999999999998
aF7553.7399999999998
aF8747.0400000000009
aF8411.7800000000007
aF6923.8000000000002
aF6749.75
aF8599.75
aF7188.8900000000003
aF7704.9799999999996
aF9685.7700000000004
aF5499.1400000000003
aF7159.5600000000004
aF10009
aF6151.0699999999997
aF6060.75
aF7063.1099999999997
aF9826.5100000000002
aF6238.2399999999998
aF7900.3299999999999
aF7203.4399999999996
aF5842.1400000000003
aF5900.9499999999998
aF5416.5600000000004
aF6777.0900000000001
aF7565.0699999999997
aF6944.8599999999997
aF6402.0200000000004
aF8465.0599999999995
aF8809.5699999999997
aF8980.2000000000007
aF7184.5100000000002
aF7448
aF7429.0299999999997
aF9146.1000000000004
aF7778.3599999999997
aF7624.79
aF7061.0900000000001
aF8276.6700000000001
aF7209.96
aF7389.5600000000004
aF7991.8299999999999
aF8035.6000000000004
aF7591.8299999999999
aF6544.6999999999998
aF6806.6000000000004
aF7529.9499999999998
aF7189.4899999999998
aF6423.3100000000004
aF9296.5400000000009
aF6549.6000000000004
aF6650.3400000000001
aF7195.0299999999997
aF7449.3599999999997
aF6979.9200000000001
aF6270.79
aF6566.6400000000003
aF8675.6800000000003
aF8509.9300000000003
aF5936.79
aF7236.1000000000004
aF9505.7000000000007
aF7833.2399999999998
aF6863.3199999999997
aF7872.4700000000003
aF10616.200000000001
aF7080.1700000000001
aF6401.6800000000003
aF7824.5799999999999
aF5862.5900000000001
aF6521.3800000000001
aF5508.3800000000001
aF9007.2299999999996
aF8516.3099999999995
aF8783.0200000000004
aF6944.8299999999999
aF6463.5299999999997
aF6750.1099999999997
aF8312.6299999999992
aF7430.1000000000004
aF5221.6300000000001
aF7096.1400000000003
aF8097.2200000000003
aF6288.9700000000003
aF7555.0299999999997
aF7211.6000000000004
aF6013.3400000000001
aF6839.3900000000003
aF6904.2799999999997
aF7132.2299999999996
aF6326.8100000000004
aF6792.2200000000003
aF7544.8599999999997
aF7186.6800000000003
aF7538.3199999999997
aF6328.4099999999999
aF6899.1599999999999
aF6246.7799999999997
aF7558.5299999999997
aF6574.9700000000003
aF7584.6700000000001
aF5408.21
aF6983.0600000000004
aF9300.0900000000001
aF5989.0600000000004
aF9238.9300000000003
aF5962.1000000000004
aF7923.29
aF6784.1099999999997
aF7162.1499999999996
aF7159.8299999999999
aF6760.21
aF8129.7700000000004
aF5705.1800000000003
aF7157.0699999999997
aF9200.9500000000007
aF6385.21
aF8142.9200000000001
aF8144.3500000000004
aF5934.6800000000003
aF8149.3900000000003
aF7338.2700000000004
aF8037.9300000000003
aF6924.9499999999998
aF8445.9799999999996
aF6813.0799999999999
aF8029.7200000000003
aF5881.46
aF5885.8900000000003
aF9754.6599999999999
aF6939.79
aF6607.7399999999998
aF7000.8000000000002
aF9425.9200000000001
aF9268.5499999999993
aF7132.9799999999996
aF8504.8899999999994
aF7175.46
aF7061.3100000000004
aF8705.4300000000003
aF7822.5500000000002
aF6413.5200000000004
aF6986.9499999999998
aF6532.7700000000004
aF4475.5699999999997
aF7420.3299999999999
aF7797.2700000000004
aF8944.2900000000009
aF8014.8299999999999
aF7191.2700000000004
aF6102.0299999999997
aF7419.8400000000001
aF7215.4300000000003
aF7097.9300000000003
aF7211.21
aF5951.9200000000001
aF8729.0499999999993
aF7171.5
aF6731.5900000000001
aF8266.0100000000002
aF6110.8100000000004
aF6127.3800000000001
aF7266.6400000000003
aF8370.9699999999993
aF7720.1999999999998
aF8727.4400000000005
aF7495.3400000000001
aF6886
aF7432.2799999999997
aF6361.9300000000003
aF8836.8199999999997
aF7956.4099999999999
aF8124.6099999999997
aF7340.7700000000004
aF7807.1800000000003
aF9488.9500000000007
aF6824.9300000000003
aF8413.4599999999991
aF7243.2399999999998
aF7609.1999999999998
aF5959.4499999999998
aF9830.9400000000005
aF9264.1700000000001
aF6711.3299999999999
aF8745
aF7936.9799999999996
aF6442.5900000000001
aF8096.0900000000001
aF7783.6599999999999
aF6770.5799999999999
aF6083.8699999999999
aF8769.0799999999999
aF6230.5600000000004
aF8750.6800000000003
aF8051.0500000000002
aF8147.4099999999999
aF6617.9899999999998
aF6991.0200000000004
aF9514.4200000000001
aF6649.8100000000004
aF6929.0900000000001
aF7089.3299999999999
aF7890.3900000000003
aF6469.8699999999999
aF5113.2399999999998
aF9139.7099999999991
aF8701.9400000000005
aF6068.3400000000001
aF10724.9
aF7201.4200000000001
aF7627.5699999999997
aF8070.9700000000003
aF6992.3999999999996
aF6281.5100000000002
aF8279.7299999999996
aF9830.8099999999995
aF6696.0799999999999
aF7794.8999999999996
aF6899.8299999999999
aF6997.0900000000001
aF6709.1899999999996
aF7121.1800000000003
aF6412.2399999999998
aF8129.9099999999999
aF8781.9799999999996
aF6537.7200000000003
aF6499.8699999999999
aF7393.9799999999996
aF6501
aF5822.25
aF8277.9200000000001
aF7167.3400000000001
aF7957.1899999999996
aF9481.7000000000007
aF8337.2399999999998
aF6881.5500000000002
aF5017.1700000000001
aF7113.5900000000001
aF7546.7799999999997
aF8590.9200000000001
aF7264.1700000000001
aF8470.7199999999993
aF6315.8500000000004
aF7768.6899999999996
aF7708.4399999999996
aF6424.2200000000003
aF6731.1700000000001
aF7494.71
aF7849.5600000000004
aF6684.2700000000004
aF6143.29
aF7089.6000000000004
aF6873.6300000000001
aF7377.8400000000001
aF8546.7800000000007
aF6509.4799999999996
aF7559.9700000000003
aF8139.5500000000002
aF7652.3999999999996
aF6401.1300000000001
aF8584.5599999999995
aF7865.4799999999996
aF7036.3100000000004
aF5958.3800000000001
aF9407.2800000000007
aF7110.04
aF7559.1400000000003
aF6897.5600000000004
aF8981.6200000000008
aF6989.1099999999997
aF6306.6499999999996
aF6381.8500000000004
aF8992.1299999999992
aF6607.5
aF7123.3999999999996
aF7276.5900000000001
aF5900.5200000000004
aF5963.8400000000001
aF9632.3199999999997
aF7928.1800000000003
aF7645.1899999999996
aF7521.6999999999998
aF5860.1000000000004
aF6831.0299999999997
aF5965.8299999999999
aF5339.3000000000002
aF6488.1700000000001
aF8002.54
aF6712.2299999999996
aF5658.6700000000001
aF6441.3999999999996
aF6940.0200000000004
aF7641.6099999999997
aF7238.8299999999999
aF5956.1099999999997
aF8242.2600000000002
aF9103.0900000000001
aF8779.0900000000001
aF8141.4300000000003
aF8017.1700000000001
aF7074.1000000000004
aF6694.6599999999999
aF6383.75
aF8367.6700000000001
aF7580.3299999999999
aF6502.6499999999996
aF7655.0100000000002
aF6962.5500000000002
aF8728.5200000000004
aF6759.4700000000003
aF5677.9899999999998
aF7022.9700000000003
aF7370.6199999999999
aF6823.3000000000002
aF8309.6700000000001
aF9015.4099999999999
aF8772.9699999999993
aF5961.8500000000004
aF6072.6899999999996
aF8348.3899999999994
aF7247.7399999999998
aF7870.6599999999999
aF6744.7600000000002
aF7262.6800000000003
aF7023.8500000000004
aF7197.21
aF9556.5400000000009
aF7883.8400000000001
aF5792.8699999999999
aF6743.71
aF5950.1599999999999
aF9634.0599999999995
aF8172.3599999999997
aF6322.5699999999997
aF7043.75
aF8877.5799999999999
aF6467.6499999999996
aF6702.0200000000004
aF6118.79
aF8044.3100000000004
aF6279.6199999999999
aF8938.4899999999998
aF8805.6200000000008
aF8098.54
aF6776.5
aF6707.4099999999999
aF7103.7799999999997
aF6298.4099999999999
aF7611.3299999999999
aF7253.4899999999998
aF7444.5600000000004
aF5737.6800000000003
aF6092.0200000000004
aF8043.5299999999997
aF5538.7200000000003
aF8320.5200000000004
aF7565.6999999999998
aF7330.2600000000002
aF7659.9700000000003
aF5611.6199999999999
aF7691.7799999999997
aF8408.2099999999991
aF6388.1099999999997
aF6610.5900000000001
aF6294.6499999999996
aF7923.75
aF7695.54
aF10140.200000000001
aF10879.200000000001
aF6711.0699999999997
aF9287.8400000000001
aF7832.6599999999999
aF7888.7399999999998
aF6772.1099999999997
aF8223.9300000000003
aF6118.4499999999998
aF7448.0699999999997
aF6045.9099999999999
aF6641.3400000000001
aF6775.8999999999996
aF6396.7299999999996
aF9280.2900000000009
aF7973.9700000000003
aF7519.2700000000004
aF6444.0299999999997
aF7051.6999999999998
aF6920.6300000000001
aF6986.6499999999996
aF6669.6599999999999
aF9181.6900000000005
aF6337.4899999999998
aF7590.9799999999996
aF6686.9700000000003
aF7994.4700000000003
aF6212.3800000000001
aF7541.8400000000001
aF7167.6999999999998
aF7973.5
aF9789.5
aF6799.1199999999999
aF8537.9599999999991
aF5844.3199999999997
aF7650.8100000000004
aF7910.4700000000003
aF6952.0200000000004
aF6724.0100000000002
aF8177.6000000000004
aF6589.9300000000003
aF6233.5900000000001
aF6820.9899999999998
aF7284.0799999999999
aF6725.46
aF9750.9799999999996
aF6399.9099999999999
aF7050.04
aF6859.1400000000003
aF8254.8199999999997
aF7136.04
aF7890.1800000000003
aF7407.9099999999999
aF7366.8599999999997
aF6605.4799999999996
aF7662.2200000000003
aF6835.29
aF8179.0900000000001
aF7166.3400000000001
aF7585.1999999999998
aF6932.1300000000001
aF6506.6499999999996
aF7925.3999999999996
aF8935.6100000000006
aF7438.1199999999999
aF5682.8100000000004
aF5991.6400000000003
aF6415.3599999999997
aF8287.5300000000007
aF5306.2700000000004
aF5565.1899999999996
aF7677.21
aF5840.8299999999999
aF6221.5299999999997
aF7408.5200000000004
aF5599.6400000000003
aF6425.4799999999996
aF6530.9200000000001
aF7887.0100000000002
aF7722.8400000000001
aF8039.2700000000004
aF6743.4799999999996
aF8421.8199999999997
aF6169.9899999999998
aF7067.5100000000002
aF6562.1000000000004
aF5318.3000000000002
aF7567.3900000000003
aF8643.2900000000009
aF10104.6
aF7710.5100000000002
aF6403.96
aF8884.0100000000002
aF6990.46
aF6861.7799999999997
aF6251.2700000000004
aF6019.9399999999996
aF6444.8299999999999
aF7143.7299999999996
aF7956.8000000000002
aF8366.4300000000003
aF8800.2299999999996
aF7429.2799999999997
aF6417.1700000000001
aF7654.79
aF5987.5600000000004
aF7614.5100000000002
aF6853.79
aF8480
aF7239.8199999999997
aF7125.8000000000002
aF9837.9599999999991
aF5278.6099999999997
aF7284.2200000000003
aF7149.6700000000001
aF7533.6300000000001
aF5742.6899999999996
aF6914.4799999999996
aF8500.6100000000006
aF7423.3199999999997
aF6489.9700000000003
aF6856.8500000000004
aF7006.1099999999997
aF7071.71
aF7991.29
aF7787.2299999999996
aF7258.2700000000004
aF7377.1599999999999
aF7504.2799999999997
aF7134.8900000000003
aF7742.46
aF6020.5100000000002
aF7614.1000000000004
aF6307.9399999999996
aF7171.3000000000002
aF7552.3199999999997
aF8579.7800000000007
aF7235.6099999999997
aF7367.4099999999999
aF12034.700000000001
aF7242.9200000000001
aF8560.1900000000005
aF7667.5100000000002
aF7432.0600000000004
aF7929.8299999999999
aF6050.6899999999996
aF7299.0200000000004
aF7574.1000000000004
aF6441.4700000000003
aF6761.21
aF7342.8800000000001
aF7222.5799999999999
aF6930.6300000000001
aF6158.9899999999998
aF6251.0600000000004
aF6672.6300000000001
aF7819.0200000000004
aF6037.6899999999996
aF6586.8299999999999
aF6625.4799999999996
aF6765.29
aF7877.3299999999999
aF8083.5900000000001
aF7404.8500000000004
aF6870.1400000000003
aF8726.5
aF8042.8100000000004
aF7037.0600000000004
aF7631.3000000000002
aF7889.4300000000003
aF5417.5799999999999
aF7987.3900000000003
aF8055.46
aF8087.6199999999999
aF6099.7799999999997
aF7280.3800000000001
aF7708.3599999999997
aF6841.5900000000001
aF7931.5600000000004
aF7069.6400000000003
aF7682.9099999999999
aF7260.3800000000001
aF6637.9200000000001
aF6984.6700000000001
aF6976.21
aF7304.7700000000004
aF5549.9300000000003
aF6652.2700000000004
aF6801.0200000000004
aF5821.71
aF6741.1700000000001
aF8395.0599999999995
aF8643.2000000000007
aF6098.3800000000001
aF6372.0799999999999
aF7305.5299999999997
aF5724.0299999999997
aF7126.0500000000002
aF8503.5499999999993
aF7170.7200000000003
aF8628.9300000000003
aF6558.46
aF7937.04
aF6297.6000000000004
aF8598.1399999999994
aF8031.5900000000001
aF7473.3800000000001
aF6542.9399999999996
aF7948.3800000000001
aF7522.0299999999997
aF6686.5900000000001
aF6814.5699999999997
aF7721.1800000000003
aF9101.0200000000004
aF7618.6499999999996
aF6106.3400000000001
aF7652.1899999999996
aF5736.2799999999997
aF7440.6800000000003
aF9223.4599999999991
aF6960.9499999999998
aF8433.2000000000007
aF5828.9300000000003
aF8506.6599999999999
aF9490.3899999999994
aF7635.8199999999997
aF7007.1599999999999
aF8203.1900000000005
aF9243.6599999999999
aF6731.5200000000004
aF6739.79
aF7753.7399999999998
aF7100.6499999999996
aF7284.8699999999999
aF9030.1599999999999
aF8729.5300000000007
aF7312.6199999999999
aF6969.71
aF8185.6099999999997
aF6384.1199999999999
aF8006.6199999999999
aF7633.1899999999996
aF7013.4700000000003
aF6787.8599999999997
aF8457.3400000000001
aF6759.5
aF7467.1300000000001
aF6288.3599999999997
aF6464.6499999999996
aF8764.2199999999993
aF7395.9700000000003
aF7430.9700000000003
aF7519.7799999999997
aF8425.8899999999994
aF5391.0500000000002
aF7108.5699999999997
aF5463.4099999999999
aF8015.1899999999996
aF7964.21
aF8033.1800000000003
aF8460.2900000000009
aF5911.21
aF6371.5799999999999
aF6929.9499999999998
aF6307.1899999999996
aF6895.4899999999998
aF6834.9399999999996
aF7455.6000000000004
aF7868.6000000000004
aF7966.7700000000004
aF7576.8900000000003
aF8198.25
aF6243.4300000000003
aF5829.04
aF7917.6800000000003
aF7854.6300000000001
aF6674.1999999999998
aF7850.3599999999997
aF8747.8700000000008
aF6783.46
aF9565.2000000000007
aF5999.5100000000002
aF7387.5299999999997
aF7585.2600000000002
aF7689.0900000000001
aF9183.2600000000002
aF7068.7200000000003
aF6882.5500000000002
aF6201.5
aF8350.9400000000005
aF6829.2700000000004
aF6049.3400000000001
aF6789.4099999999999
aF5583.54
aF7898.8900000000003
aF7566.6099999999997
aF7445.5500000000002
aF6227.3000000000002
aF7547.7299999999996
aF6260.3999999999996
aF5304.9799999999996
aF5658.3199999999997
aF7161.6099999999997
aF7555.1000000000004
aF6977.7200000000003
aF7442.5500000000002
aF6773.0600000000004
aF10244.299999999999
aF7367.9899999999998
aF7914.0799999999999
aF7341.8400000000001
aF6574.4700000000003
aF6642.79
aF9125.6299999999992
aF7242.1400000000003
aF5486.8400000000001
aF7060.9899999999998
aF6288.0799999999999
aF10318
aF6422.2799999999997
aF6039.21
aF6799.0200000000004
aF7025.3599999999997
aF6046.6700000000001
aF7031.1999999999998
aF8908.25
aF8506.8600000000006
aF7908.3299999999999
aF6850.1400000000003
aF6944.1599999999999
aF7901.1800000000003
aF6009.1300000000001
aF6365.6199999999999
aF7770.0100000000002
aF8404
aF7789.6999999999998
aF7499.8000000000002
aF7614.71
aF8500.9899999999998
aF6319.5799999999999
aF6655.7600000000002
aF7170.8800000000001
aF8694.2199999999993
aF6998.3199999999997
aF7869.5500000000002
aF6007.5699999999997
aF9030.2900000000009
aF9416.3400000000001
aF7200.8699999999999
aF7228.2200000000003
aF8416.2999999999993
aF8983.0499999999993
aF8300.6299999999992
aF7233.5900000000001
aF7245.0699999999997
aF8239.5900000000001
aF7767.9499999999998
aF8057.9399999999996
aF7388.4399999999996
aF9656.1399999999994
aF7538.6400000000003
aF7153.9300000000003
aF7411.3400000000001
aF6157.1400000000003
aF5931.9200000000001
aF7742.9399999999996
aF8235.8299999999999
aF7857.1400000000003
aF7383.6000000000004
aF7419.21
aF8196.3999999999996
aF6067.4799999999996
aF6269.21
aF7271.3999999999996
aF7402.4700000000003
aF9014.8099999999995
aF6817.4799999999996
aF7571.7799999999997
aF8391.6599999999999
aF8923.6499999999996
aF6722.3199999999997
aF7312.4499999999998
aF5936.7200000000003
aF6264.3999999999996
aF5879.54
aF7084.1199999999999
aF7947.4499999999998
aF7073.3900000000003
aF7003.3999999999996
aF6885.5799999999999
aF7764
aF6262.2799999999997
aF7258.3800000000001
aF7059.21
aF5908
aF7892.0900000000001
aF9417.1200000000008
aF8939.6800000000003
aF6833.0200000000004
aF7903.5
aF7990.1000000000004
aF6997.5699999999997
aF7469.3199999999997
aF6441.6899999999996
aF6592.7299999999996
aF7750.0799999999999
aF5709.21
aF6773.3699999999999
aF8072.8699999999999
aF6706.3299999999999
aF8027.0600000000004
aF6339.5500000000002
aF6430.5600000000004
aF7072.8500000000004
aF8125.2399999999998
aF6888.3800000000001
aF6850.2200000000003
aF7245.4200000000001
aF7199.3000000000002
aF9808.1299999999992
aF5892.6400000000003
aF6766.5
aF6475.5
aF6470.54
aF7043.5699999999997
aF6971.46
aF7132.9399999999996
aF7665.5
aF5784.5500000000002
aF7111.4499999999998
aF13767.6
aF6795.7299999999996
aF6762.5699999999997
aF8396.0300000000007
aF7328.46
aF7162.2700000000004
aF6150.3900000000003
aF6615.7700000000004
aF6253.46
aF6702.71
aF7295.5100000000002
aF7244.9099999999999
aF6893.9200000000001
aF6790
aF7540.8999999999996
aF6783.1999999999998
aF5838.7600000000002
aF7466.6499999999996
aF8215.7399999999998
aF6594.1899999999996
aF7327.6800000000003
aF8194.4799999999996
aF8696.3299999999999
aF7210.4899999999998
aF6171.0299999999997
aF8501.6900000000005
aF5866.5500000000002
aF7412.0900000000001
aF7597.54
aF5976.1800000000003
aF7880.8400000000001
aF9291.5799999999999
aF6865.4499999999998
aF6600.3400000000001
aF7300.9899999999998
aF7092.1899999999996
aF5612.2799999999997
aF6761.3599999999997
aF7695.1400000000003
aF7427.96
aF7545.3299999999999
aF7131.9099999999999
aF6650.6899999999996
aF9097.7000000000007
aF6888.9099999999999
aF7275.6599999999999
aF6770.9099999999999
aF7082.0299999999997
aF6726.96
aF7894.5500000000002
aF7114.7399999999998
aF7086.6800000000003
aF6522.46
aF8408.7700000000004
aF6797.3599999999997
aF5818.7299999999996
aF6362.1899999999996
aF7214.5799999999999
aF6440.9300000000003
aF7110.3699999999999
aF5668.1199999999999
aF8863.5200000000004
aF6280.7700000000004
aF7552.1800000000003
aF7403.0699999999997
aF6850.0900000000001
aF7090.79
aF9467.8500000000004
aF7239.0900000000001
aF6162.5500000000002
aF7105.8500000000004
aF6095.8000000000002
aF8383.3799999999992
aF5577.6099999999997
aF7599.9099999999999
aF6896.21
aF8672.2999999999993
aF6227.8699999999999
aF8028.0200000000004
aF8763.2700000000004
aF6040.6000000000004
aF6950.3299999999999
aF6321.5600000000004
aF9737.0200000000004
aF6647.7299999999996
aF5604.2200000000003
aF5915.9700000000003
aF8872.6599999999999
aF8329.6499999999996
aF6567.0100000000002
aF7798.46
aF8406.5499999999993
aF9071.0200000000004
aF6627.21
aF8445.3899999999994
aF6796.1599999999999
aF6897.2399999999998
aF7757.9799999999996
aF5677.4300000000003
aF7720.6099999999997
aF6137.6899999999996
aF7444.6899999999996
aF8587.2000000000007
aF6718.8800000000001
aF6345.0699999999997
aF5832.7799999999997
aF6735.1000000000004
aF6855.8500000000004
aF7707.4200000000001
aF8188.8999999999996
aF7738.4799999999996
aF7433.0600000000004
aF6380.5799999999999
aF6115.29
aF8317.5599999999995
aF7724.4700000000003
aF7491.5200000000004
aF7524.3100000000004
aF7228.6199999999999
aF7740.6599999999999
aF7266.1999999999998
aF9158.1499999999996
aF6062
aF7234.6400000000003
aF7576.0799999999999
atp5
s.