(dp1
S'TRAIN'
p2
((lp3
I0
aI20
aI40
aI60
aI80
aI100
aI120
aI140
aI160
aI180
aI200
aI220
aI240
aI260
aI280
aI300
aI320
aI340
aI360
aI380
aI400
aI420
aI440
aI460
aI480
aI500
aI520
aI540
aI560
aI580
aI600
aI620
aI640
aI660
aI680
aI700
aI720
aI740
aI760
aI780
aI800
aI820
aI840
aI860
aI880
aI900
aI920
aI940
aI960
aI980
aI1000
aI1020
aI1040
aI1060
aI1080
aI1100
aI1120
aI1140
aI1160
aI1180
aI1200
aI1220
aI1240
aI1260
aI1280
aI1300
aI1320
aI1340
aI1360
aI1380
aI1400
aI1420
aI1440
aI1460
aI1480
aI1500
aI1520
aI1540
aI1560
aI1580
aI1600
aI1620
aI1640
aI1660
aI1680
aI1700
aI1720
aI1740
aI1760
aI1780
aI1800
aI1820
aI1840
aI1860
aI1880
aI1900
aI1920
aI1940
aI1960
aI1980
aI2000
aI2020
aI2040
aI2060
aI2080
aI2100
aI2120
aI2140
aI2160
aI2180
aI2200
aI2220
aI2240
aI2260
aI2280
aI2300
aI2320
aI2340
aI2360
aI2380
aI2400
aI2420
aI2440
aI2460
aI2480
aI2500
aI2520
aI2540
aI2560
aI2580
aI2600
aI2620
aI2640
aI2660
aI2680
aI2700
aI2720
aI2740
aI2760
aI2780
aI2800
aI2820
aI2840
aI2860
aI2880
aI2900
aI2920
aI2940
aI2960
aI2980
aI3000
aI3020
aI3040
aI3060
aI3080
aI3100
aI3120
aI3140
aI3160
aI3180
aI3200
aI3220
aI3240
aI3260
aI3280
aI3300
aI3320
aI3340
aI3360
aI3380
aI3400
aI3420
aI3440
aI3460
aI3480
aI3500
aI3520
aI3540
aI3560
aI3580
aI3600
aI3620
aI3640
aI3660
aI3680
aI3700
aI3720
aI3740
aI3760
aI3780
aI3800
aI3820
aI3840
aI3860
aI3880
aI3900
aI3920
aI3940
aI3960
aI3980
aI4000
aI4020
aI4040
aI4060
aI4080
aI4100
aI4120
aI4140
aI4160
aI4180
aI4200
aI4220
aI4240
aI4260
aI4280
aI4300
aI4320
aI4340
aI4360
aI4380
aI4400
aI4420
aI4440
aI4460
aI4480
aI4500
aI4520
aI4540
aI4560
aI4580
aI4600
aI4620
aI4640
aI4660
aI4680
aI4700
aI4720
aI4740
aI4760
aI4780
aI4800
aI4820
aI4840
aI4860
aI4880
aI4900
aI4920
aI4940
aI4960
aI4980
aI5000
aI5020
aI5040
aI5060
aI5080
aI5100
aI5120
aI5140
aI5160
aI5180
aI5200
aI5220
aI5240
aI5260
aI5280
aI5300
aI5320
aI5340
aI5360
aI5380
aI5400
aI5420
aI5440
aI5460
aI5480
aI5500
aI5520
aI5540
aI5560
aI5580
aI5600
aI5620
aI5640
aI5660
aI5680
aI5700
aI5720
aI5740
aI5760
aI5780
aI5800
aI5820
aI5840
aI5860
aI5880
aI5900
aI5920
aI5940
aI5960
aI5980
aI6000
aI6020
aI6040
aI6060
aI6080
aI6100
aI6120
aI6140
aI6160
aI6180
aI6200
aI6220
aI6240
aI6260
aI6280
aI6300
aI6320
aI6340
aI6360
aI6380
aI6400
aI6420
aI6440
aI6460
aI6480
aI6500
aI6520
aI6540
aI6560
aI6580
aI6600
aI6620
aI6640
aI6660
aI6680
aI6700
aI6720
aI6740
aI6760
aI6780
aI6800
aI6820
aI6840
aI6860
aI6880
aI6900
aI6920
aI6940
aI6960
aI6980
aI7000
aI7020
aI7040
aI7060
aI7080
aI7100
aI7120
aI7140
aI7160
aI7180
aI7200
aI7220
aI7240
aI7260
aI7280
aI7300
aI7320
aI7340
aI7360
aI7380
aI7400
aI7420
aI7440
aI7460
aI7480
aI7500
aI7520
aI7540
aI7560
aI7580
aI7600
aI7620
aI7640
aI7660
aI7680
aI7700
aI7720
aI7740
aI7760
aI7780
aI7800
aI7820
aI7840
aI7860
aI7880
aI7900
aI7920
aI7940
aI7960
aI7980
aI8000
aI8020
aI8040
aI8060
aI8080
aI8100
aI8120
aI8140
aI8160
aI8180
aI8200
aI8220
aI8240
aI8260
aI8280
aI8300
aI8320
aI8340
aI8360
aI8380
aI8400
aI8420
aI8440
aI8460
aI8480
aI8500
aI8520
aI8540
aI8560
aI8580
aI8600
aI8620
aI8640
aI8660
aI8680
aI8700
aI8720
aI8740
aI8760
aI8780
aI8800
aI8820
aI8840
aI8860
aI8880
aI8900
aI8920
aI8940
aI8960
aI8980
aI9000
aI9020
aI9040
aI9060
aI9080
aI9100
aI9120
aI9140
aI9160
aI9180
aI9200
aI9220
aI9240
aI9260
aI9280
aI9300
aI9320
aI9340
aI9360
aI9380
aI9400
aI9420
aI9440
aI9460
aI9480
aI9500
aI9520
aI9540
aI9560
aI9580
aI9600
aI9620
aI9640
aI9660
aI9680
aI9700
aI9720
aI9740
aI9760
aI9780
aI9800
aI9820
aI9840
aI9860
aI9880
aI9900
aI9920
aI9940
aI9960
aI9980
aI10000
aI10020
aI10040
aI10060
aI10080
aI10100
aI10120
aI10140
aI10160
aI10180
aI10200
aI10220
aI10240
aI10260
aI10280
aI10300
aI10320
aI10340
aI10360
aI10380
aI10400
aI10420
aI10440
aI10460
aI10480
aI10500
aI10520
aI10540
aI10560
aI10580
aI10600
aI10620
aI10640
aI10660
aI10680
aI10700
aI10720
aI10740
aI10760
aI10780
aI10800
aI10820
aI10840
aI10860
aI10880
aI10900
aI10920
aI10940
aI10960
aI10980
aI11000
aI11020
aI11040
aI11060
aI11080
aI11100
aI11120
aI11140
aI11160
aI11180
aI11200
aI11220
aI11240
aI11260
aI11280
aI11300
aI11320
aI11340
aI11360
aI11380
aI11400
aI11420
aI11440
aI11460
aI11480
aI11500
aI11520
aI11540
aI11560
aI11580
aI11600
aI11620
aI11640
aI11660
aI11680
aI11700
aI11720
aI11740
aI11760
aI11780
aI11800
aI11820
aI11840
aI11860
aI11880
aI11900
aI11920
aI11940
aI11960
aI11980
aI12000
aI12020
aI12040
aI12060
aI12080
aI12100
aI12120
aI12140
aI12160
aI12180
aI12200
aI12220
aI12240
aI12260
aI12280
aI12300
aI12320
aI12340
aI12360
aI12380
aI12400
aI12420
aI12440
aI12460
aI12480
aI12500
aI12520
aI12540
aI12560
aI12580
aI12600
aI12620
aI12640
aI12660
aI12680
aI12700
aI12720
aI12740
aI12760
aI12780
aI12800
aI12820
aI12840
aI12860
aI12880
aI12900
aI12920
aI12940
aI12960
aI12980
aI13000
aI13020
aI13040
aI13060
aI13080
aI13100
aI13120
aI13140
aI13160
aI13180
aI13200
aI13220
aI13240
aI13260
aI13280
aI13300
aI13320
aI13340
aI13360
aI13380
aI13400
aI13420
aI13440
aI13460
aI13480
aI13500
aI13520
aI13540
aI13560
aI13580
aI13600
aI13620
aI13640
aI13660
aI13680
aI13700
aI13720
aI13740
aI13760
aI13780
aI13800
aI13820
aI13840
aI13860
aI13880
aI13900
aI13920
aI13940
aI13960
aI13980
aI14000
aI14020
aI14040
aI14060
aI14080
aI14100
aI14120
aI14140
aI14160
aI14180
aI14200
aI14220
aI14240
aI14260
aI14280
aI14300
aI14320
aI14340
aI14360
aI14380
aI14400
aI14420
aI14440
aI14460
aI14480
aI14500
aI14520
aI14540
aI14560
aI14580
aI14600
aI14620
aI14640
aI14660
aI14680
aI14700
aI14720
aI14740
aI14760
aI14780
aI14800
aI14820
aI14840
aI14860
aI14880
aI14900
aI14920
aI14940
aI14960
aI14980
aI15000
aI15020
aI15040
aI15060
aI15080
aI15100
aI15120
aI15140
aI15160
aI15180
aI15200
aI15220
aI15240
aI15260
aI15280
aI15300
aI15320
aI15340
aI15360
aI15380
aI15400
aI15420
aI15440
aI15460
aI15480
aI15500
aI15520
aI15540
aI15560
aI15580
aI15600
aI15620
aI15640
aI15660
aI15680
aI15700
aI15720
aI15740
aI15760
aI15780
aI15800
aI15820
aI15840
aI15860
aI15880
aI15900
aI15920
aI15940
aI15960
aI15980
aI16000
aI16020
aI16040
aI16060
aI16080
aI16100
aI16120
aI16140
aI16160
aI16180
aI16200
aI16220
aI16240
aI16260
aI16280
aI16300
aI16320
aI16340
aI16360
aI16380
aI16400
aI16420
aI16440
aI16460
aI16480
aI16500
aI16520
aI16540
aI16560
aI16580
aI16600
aI16620
aI16640
aI16660
aI16680
aI16700
aI16720
aI16740
aI16760
aI16780
aI16800
aI16820
aI16840
aI16860
aI16880
aI16900
aI16920
aI16940
aI16960
aI16980
aI17000
aI17020
aI17040
aI17060
aI17080
aI17100
aI17120
aI17140
aI17160
aI17180
aI17200
aI17220
aI17240
aI17260
aI17280
aI17300
aI17320
aI17340
aI17360
aI17380
aI17400
aI17420
aI17440
aI17460
aI17480
aI17500
aI17520
aI17540
aI17560
aI17580
aI17600
aI17620
aI17640
aI17660
aI17680
aI17700
aI17720
aI17740
aI17760
aI17780
aI17800
aI17820
aI17840
aI17860
aI17880
aI17900
aI17920
aI17940
aI17960
aI17980
aI18000
aI18020
aI18040
aI18060
aI18080
aI18100
aI18120
aI18140
aI18160
aI18180
aI18200
aI18220
aI18240
aI18260
aI18280
aI18300
aI18320
aI18340
aI18360
aI18380
aI18400
aI18420
aI18440
aI18460
aI18480
aI18500
aI18520
aI18540
aI18560
aI18580
aI18600
aI18620
aI18640
aI18660
aI18680
aI18700
aI18720
aI18740
aI18760
aI18780
aI18800
aI18820
aI18840
aI18860
aI18880
aI18900
aI18920
aI18940
aI18960
aI18980
aI19000
aI19020
aI19040
aI19060
aI19080
aI19100
aI19120
aI19140
aI19160
aI19180
aI19200
aI19220
aI19240
aI19260
aI19280
aI19300
aI19320
aI19340
aI19360
aI19380
aI19400
aI19420
aI19440
aI19460
aI19480
aI19500
aI19520
aI19540
aI19560
aI19580
aI19600
aI19620
aI19640
aI19660
aI19680
aI19700
aI19720
aI19740
aI19760
aI19780
aI19800
aI19820
aI19840
aI19860
aI19880
aI19900
aI19920
aI19940
aI19960
aI19980
aI20000
aI20020
aI20040
aI20060
aI20080
aI20100
aI20120
aI20140
aI20160
aI20180
aI20200
aI20220
aI20240
aI20260
aI20280
aI20300
aI20320
aI20340
aI20360
aI20380
aI20400
aI20420
aI20440
aI20460
aI20480
aI20500
aI20520
aI20540
aI20560
aI20580
aI20600
aI20620
aI20640
aI20660
aI20680
aI20700
aI20720
aI20740
aI20760
aI20780
aI20800
aI20820
aI20840
aI20860
aI20880
aI20900
aI20920
aI20940
aI20960
aI20980
aI21000
aI21020
aI21040
aI21060
aI21080
aI21100
aI21120
aI21140
aI21160
aI21180
aI21200
aI21220
aI21240
aI21260
aI21280
aI21300
aI21320
aI21340
aI21360
aI21380
aI21400
aI21420
aI21440
aI21460
aI21480
aI21500
aI21520
aI21540
aI21560
aI21580
aI21600
aI21620
aI21640
aI21660
aI21680
aI21700
aI21720
aI21740
aI21760
aI21780
aI21800
aI21820
aI21840
aI21860
aI21880
aI21900
aI21920
aI21940
aI21960
aI21980
aI22000
aI22020
aI22040
aI22060
aI22080
aI22100
aI22120
aI22140
aI22160
aI22180
aI22200
aI22220
aI22240
aI22260
aI22280
aI22300
aI22320
aI22340
aI22360
aI22380
aI22400
aI22420
aI22440
aI22460
aI22480
aI22500
aI22520
aI22540
aI22560
aI22580
aI22600
aI22620
aI22640
aI22660
aI22680
aI22700
aI22720
aI22740
aI22760
aI22780
aI22800
aI22820
aI22840
aI22860
aI22880
aI22900
aI22920
aI22940
aI22960
aI22980
aI23000
aI23020
aI23040
aI23060
aI23080
aI23100
aI23120
aI23140
aI23160
aI23180
aI23200
aI23220
aI23240
aI23260
aI23280
aI23300
aI23320
aI23340
aI23360
aI23380
aI23400
aI23420
aI23440
aI23460
aI23480
aI23500
aI23520
aI23540
aI23560
aI23580
aI23600
aI23620
aI23640
aI23660
aI23680
aI23700
aI23720
aI23740
aI23760
aI23780
aI23800
aI23820
aI23840
aI23860
aI23880
aI23900
aI23920
aI23940
aI23960
aI23980
aI24000
aI24020
aI24040
aI24060
aI24080
aI24100
aI24120
aI24140
aI24160
aI24180
aI24200
aI24220
aI24240
aI24260
aI24280
aI24300
aI24320
aI24340
aI24360
aI24380
aI24400
aI24420
aI24440
aI24460
aI24480
aI24500
aI24520
aI24540
aI24560
aI24580
aI24600
aI24620
aI24640
aI24660
aI24680
aI24700
aI24720
aI24740
aI24760
aI24780
aI24800
aI24820
aI24840
aI24860
aI24880
aI24900
aI24920
aI24940
aI24960
aI24980
aI25000
aI25020
aI25040
aI25060
aI25080
aI25100
aI25120
aI25140
aI25160
aI25180
aI25200
aI25220
aI25240
aI25260
aI25280
aI25300
aI25320
aI25340
aI25360
aI25380
aI25400
aI25420
aI25440
aI25460
aI25480
aI25500
aI25520
aI25540
aI25560
aI25580
aI25600
aI25620
aI25640
aI25660
aI25680
aI25700
aI25720
aI25740
aI25760
aI25780
aI25800
aI25820
aI25840
aI25860
aI25880
aI25900
aI25920
aI25940
aI25960
aI25980
aI26000
aI26020
aI26040
aI26060
aI26080
aI26100
aI26120
aI26140
aI26160
aI26180
aI26200
aI26220
aI26240
aI26260
aI26280
aI26300
aI26320
aI26340
aI26360
aI26380
aI26400
aI26420
aI26440
aI26460
aI26480
aI26500
aI26520
aI26540
aI26560
aI26580
aI26600
aI26620
aI26640
aI26660
aI26680
aI26700
aI26720
aI26740
aI26760
aI26780
aI26800
aI26820
aI26840
aI26860
aI26880
aI26900
aI26920
aI26940
aI26960
aI26980
aI27000
aI27020
aI27040
aI27060
aI27080
aI27100
aI27120
aI27140
aI27160
aI27180
aI27200
aI27220
aI27240
aI27260
aI27280
aI27300
aI27320
aI27340
aI27360
aI27380
aI27400
aI27420
aI27440
aI27460
aI27480
aI27500
aI27520
aI27540
aI27560
aI27580
aI27600
aI27620
aI27640
aI27660
aI27680
aI27700
aI27720
aI27740
aI27760
aI27780
aI27800
aI27820
aI27840
aI27860
aI27880
aI27900
aI27920
aI27940
aI27960
aI27980
aI28000
aI28020
aI28040
aI28060
aI28080
aI28100
aI28120
aI28140
aI28160
aI28180
aI28200
aI28220
aI28240
aI28260
aI28280
aI28300
aI28320
aI28340
aI28360
aI28380
aI28400
aI28420
aI28440
aI28460
aI28480
aI28500
aI28520
aI28540
aI28560
aI28580
aI28600
aI28620
aI28640
aI28660
aI28680
aI28700
aI28720
aI28740
aI28760
aI28780
aI28800
aI28820
aI28840
aI28860
aI28880
aI28900
aI28920
aI28940
aI28960
aI28980
aI29000
aI29020
aI29040
aI29060
aI29080
aI29100
aI29120
aI29140
aI29160
aI29180
aI29200
aI29220
aI29240
aI29260
aI29280
aI29300
aI29320
aI29340
aI29360
aI29380
aI29400
aI29420
aI29440
aI29460
aI29480
aI29500
aI29520
aI29540
aI29560
aI29580
aI29600
aI29620
aI29640
aI29660
aI29680
aI29700
aI29720
aI29740
aI29760
aI29780
aI29800
aI29820
aI29840
aI29860
aI29880
aI29900
aI29920
aI29940
aI29960
aI29980
aI30000
aI30020
aI30040
aI30060
aI30080
aI30100
aI30120
aI30140
aI30160
aI30180
aI30200
aI30220
aI30240
aI30260
aI30280
aI30300
aI30320
aI30340
aI30360
aI30380
aI30400
aI30420
aI30440
aI30460
aI30480
aI30500
aI30520
aI30540
aI30560
aI30580
aI30600
aI30620
aI30640
aI30660
aI30680
aI30700
aI30720
aI30740
aI30760
aI30780
aI30800
aI30820
aI30840
aI30860
aI30880
aI30900
aI30920
aI30940
aI30960
aI30980
aI31000
aI31020
aI31040
aI31060
aI31080
aI31100
aI31120
aI31140
aI31160
aI31180
aI31200
aI31220
aI31240
aI31260
aI31280
aI31300
aI31320
aI31340
aI31360
aI31380
aI31400
aI31420
aI31440
aI31460
aI31480
aI31500
aI31520
aI31540
aI31560
aI31580
aI31600
aI31620
aI31640
aI31660
aI31680
aI31700
aI31720
aI31740
aI31760
aI31780
aI31800
aI31820
aI31840
aI31860
aI31880
aI31900
aI31920
aI31940
aI31960
aI31980
aI32000
aI32020
aI32040
aI32060
aI32080
aI32100
aI32120
aI32140
aI32160
aI32180
aI32200
aI32220
aI32240
aI32260
aI32280
aI32300
aI32320
aI32340
aI32360
aI32380
aI32400
aI32420
aI32440
aI32460
aI32480
aI32500
aI32520
aI32540
aI32560
aI32580
aI32600
aI32620
aI32640
aI32660
aI32680
aI32700
aI32720
aI32740
aI32760
aI32780
aI32800
aI32820
aI32840
aI32860
aI32880
aI32900
aI32920
aI32940
aI32960
aI32980
aI33000
aI33020
aI33040
aI33060
aI33080
aI33100
aI33120
aI33140
aI33160
aI33180
aI33200
aI33220
aI33240
aI33260
aI33280
aI33300
aI33320
aI33340
aI33360
aI33380
aI33400
aI33420
aI33440
aI33460
aI33480
aI33500
aI33520
aI33540
aI33560
aI33580
aI33600
aI33620
aI33640
aI33660
aI33680
aI33700
aI33720
aI33740
aI33760
aI33780
aI33800
aI33820
aI33840
aI33860
aI33880
aI33900
aI33920
aI33940
aI33960
aI33980
aI34000
aI34020
aI34040
aI34060
aI34080
aI34100
aI34120
aI34140
aI34160
aI34180
aI34200
aI34220
aI34240
aI34260
aI34280
aI34300
aI34320
aI34340
aI34360
aI34380
aI34400
aI34420
aI34440
aI34460
aI34480
aI34500
aI34520
aI34540
aI34560
aI34580
aI34600
aI34620
aI34640
aI34660
aI34680
aI34700
aI34720
aI34740
aI34760
aI34780
aI34800
aI34820
aI34840
aI34860
aI34880
aI34900
aI34920
aI34940
aI34960
aI34980
aI35000
aI35020
aI35040
aI35060
aI35080
aI35100
aI35120
aI35140
aI35160
aI35180
aI35200
aI35220
aI35240
aI35260
aI35280
aI35300
aI35320
aI35340
aI35360
aI35380
aI35400
aI35420
aI35440
aI35460
aI35480
aI35500
aI35520
aI35540
aI35560
aI35580
aI35600
aI35620
aI35640
aI35660
aI35680
aI35700
aI35720
aI35740
aI35760
aI35780
aI35800
aI35820
aI35840
aI35860
aI35880
aI35900
aI35920
aI35940
aI35960
aI35980
aI36000
aI36020
aI36040
aI36060
aI36080
aI36100
aI36120
aI36140
aI36160
aI36180
aI36200
aI36220
aI36240
aI36260
aI36280
aI36300
aI36320
aI36340
aI36360
aI36380
aI36400
aI36420
aI36440
aI36460
aI36480
aI36500
aI36520
aI36540
aI36560
aI36580
aI36600
aI36620
aI36640
aI36660
aI36680
aI36700
aI36720
aI36740
aI36760
aI36780
aI36800
aI36820
aI36840
aI36860
aI36880
aI36900
aI36920
aI36940
aI36960
aI36980
aI37000
aI37020
aI37040
aI37060
aI37080
aI37100
aI37120
aI37140
aI37160
aI37180
aI37200
aI37220
aI37240
aI37260
aI37280
aI37300
aI37320
aI37340
aI37360
aI37380
aI37400
aI37420
aI37440
aI37460
aI37480
aI37500
aI37520
aI37540
aI37560
aI37580
aI37600
aI37620
aI37640
aI37660
aI37680
aI37700
aI37720
aI37740
aI37760
aI37780
aI37800
aI37820
aI37840
aI37860
aI37880
aI37900
aI37920
aI37940
aI37960
aI37980
aI38000
aI38020
aI38040
aI38060
aI38080
aI38100
aI38120
aI38140
aI38160
aI38180
aI38200
aI38220
aI38240
aI38260
aI38280
aI38300
aI38320
aI38340
aI38360
aI38380
aI38400
aI38420
aI38440
aI38460
aI38480
aI38500
aI38520
aI38540
aI38560
aI38580
aI38600
aI38620
aI38640
aI38660
aI38680
aI38700
aI38720
aI38740
aI38760
aI38780
aI38800
aI38820
aI38840
aI38860
aI38880
aI38900
aI38920
aI38940
aI38960
aI38980
aI39000
aI39020
aI39040
aI39060
aI39080
aI39100
aI39120
aI39140
aI39160
aI39180
aI39200
aI39220
aI39240
aI39260
aI39280
aI39300
aI39320
aI39340
aI39360
aI39380
aI39400
aI39420
aI39440
aI39460
aI39480
aI39500
aI39520
aI39540
aI39560
aI39580
aI39600
aI39620
aI39640
aI39660
aI39680
aI39700
aI39720
aI39740
aI39760
aI39780
aI39800
aI39820
aI39840
aI39860
aI39880
aI39900
aI39920
aI39940
aI39960
aI39980
aI40000
aI40020
aI40040
aI40060
aI40080
aI40100
aI40120
aI40140
aI40160
aI40180
aI40200
aI40220
aI40240
aI40260
aI40280
aI40300
aI40320
aI40340
aI40360
aI40380
aI40400
aI40420
aI40440
aI40460
aI40480
aI40500
aI40520
aI40540
aI40560
aI40580
aI40600
aI40620
aI40640
aI40660
aI40680
aI40700
aI40720
aI40740
aI40760
aI40780
aI40800
aI40820
aI40840
aI40860
aI40880
aI40900
aI40920
aI40940
aI40960
aI40980
aI41000
aI41020
aI41040
aI41060
aI41080
aI41100
aI41120
aI41140
aI41160
aI41180
aI41200
aI41220
aI41240
aI41260
aI41280
aI41300
aI41320
aI41340
aI41360
aI41380
aI41400
aI41420
aI41440
aI41460
aI41480
aI41500
aI41520
aI41540
aI41560
aI41580
aI41600
aI41620
aI41640
aI41660
aI41680
aI41700
aI41720
aI41740
aI41760
aI41780
aI41800
aI41820
aI41840
aI41860
aI41880
aI41900
aI41920
aI41940
aI41960
aI41980
aI42000
aI42020
aI42040
aI42060
aI42080
aI42100
aI42120
aI42140
aI42160
aI42180
aI42200
aI42220
aI42240
aI42260
aI42280
aI42300
aI42320
aI42340
aI42360
aI42380
aI42400
aI42420
aI42440
aI42460
aI42480
aI42500
aI42520
aI42540
aI42560
aI42580
aI42600
aI42620
aI42640
aI42660
aI42680
aI42700
aI42720
aI42740
aI42760
aI42780
aI42800
aI42820
aI42840
aI42860
aI42880
aI42900
aI42920
aI42940
aI42960
aI42980
aI43000
aI43020
aI43040
aI43060
aI43080
aI43100
aI43120
aI43140
aI43160
aI43180
aI43200
aI43220
aI43240
aI43260
aI43280
aI43300
aI43320
aI43340
aI43360
aI43380
aI43400
aI43420
aI43440
aI43460
aI43480
aI43500
aI43520
aI43540
aI43560
aI43580
aI43600
aI43620
aI43640
aI43660
aI43680
aI43700
aI43720
aI43740
aI43760
aI43780
aI43800
aI43820
aI43840
aI43860
aI43880
aI43900
aI43920
aI43940
aI43960
aI43980
aI44000
aI44020
aI44040
aI44060
aI44080
aI44100
aI44120
aI44140
aI44160
aI44180
aI44200
aI44220
aI44240
aI44260
aI44280
aI44300
aI44320
aI44340
aI44360
aI44380
aI44400
aI44420
aI44440
aI44460
aI44480
aI44500
aI44520
aI44540
aI44560
aI44580
aI44600
aI44620
aI44640
aI44660
aI44680
aI44700
aI44720
aI44740
aI44760
aI44780
aI44800
aI44820
aI44840
aI44860
aI44880
aI44900
aI44920
aI44940
aI44960
aI44980
aI45000
aI45020
aI45040
aI45060
aI45080
aI45100
aI45120
aI45140
aI45160
aI45180
aI45200
aI45220
aI45240
aI45260
aI45280
aI45300
aI45320
aI45340
aI45360
aI45380
aI45400
aI45420
aI45440
aI45460
aI45480
aI45500
aI45520
aI45540
aI45560
aI45580
aI45600
aI45620
aI45640
aI45660
aI45680
aI45700
aI45720
aI45740
aI45760
aI45780
aI45800
aI45820
aI45840
aI45860
aI45880
aI45900
aI45920
aI45940
aI45960
aI45980
aI46000
aI46020
aI46040
aI46060
aI46080
aI46100
aI46120
aI46140
aI46160
aI46180
aI46200
aI46220
aI46240
aI46260
aI46280
aI46300
aI46320
aI46340
aI46360
aI46380
aI46400
aI46420
aI46440
aI46460
aI46480
aI46500
aI46520
aI46540
aI46560
aI46580
aI46600
aI46620
aI46640
aI46660
aI46680
aI46700
aI46720
aI46740
aI46760
aI46780
aI46800
aI46820
aI46840
aI46860
aI46880
aI46900
aI46920
aI46940
aI46960
aI46980
aI47000
aI47020
aI47040
aI47060
aI47080
aI47100
aI47120
aI47140
aI47160
aI47180
aI47200
aI47220
aI47240
aI47260
aI47280
aI47300
aI47320
aI47340
aI47360
aI47380
aI47400
aI47420
aI47440
aI47460
aI47480
aI47500
aI47520
aI47540
aI47560
aI47580
aI47600
aI47620
aI47640
aI47660
aI47680
aI47700
aI47720
aI47740
aI47760
aI47780
aI47800
aI47820
aI47840
aI47860
aI47880
aI47900
aI47920
aI47940
aI47960
aI47980
aI48000
aI48020
aI48040
aI48060
aI48080
aI48100
aI48120
aI48140
aI48160
aI48180
aI48200
aI48220
aI48240
aI48260
aI48280
aI48300
aI48320
aI48340
aI48360
aI48380
aI48400
aI48420
aI48440
aI48460
aI48480
aI48500
aI48520
aI48540
aI48560
aI48580
aI48600
aI48620
aI48640
aI48660
aI48680
aI48700
aI48720
aI48740
aI48760
aI48780
aI48800
aI48820
aI48840
aI48860
aI48880
aI48900
aI48920
aI48940
aI48960
aI48980
aI49000
aI49020
aI49040
aI49060
aI49080
aI49100
aI49120
aI49140
aI49160
aI49180
aI49200
aI49220
aI49240
aI49260
aI49280
aI49300
aI49320
aI49340
aI49360
aI49380
aI49400
aI49420
aI49440
aI49460
aI49480
aI49500
aI49520
aI49540
aI49560
aI49580
aI49600
aI49620
aI49640
aI49660
aI49680
aI49700
aI49720
aI49740
aI49760
aI49780
aI49800
aI49820
aI49840
aI49860
aI49880
aI49900
aI49920
aI49940
aI49960
aI49980
aI50000
aI50020
aI50040
aI50060
aI50080
aI50100
aI50120
aI50140
aI50160
aI50180
aI50200
aI50220
aI50240
aI50260
aI50280
aI50300
aI50320
aI50340
aI50360
aI50380
aI50400
aI50420
aI50440
aI50460
aI50480
aI50500
aI50520
aI50540
aI50560
aI50580
aI50600
aI50620
aI50640
aI50660
aI50680
aI50700
aI50720
aI50740
aI50760
aI50780
aI50800
aI50820
aI50840
aI50860
aI50880
aI50900
aI50920
aI50940
aI50960
aI50980
aI51000
aI51020
aI51040
aI51060
aI51080
aI51100
aI51120
aI51140
aI51160
aI51180
aI51200
aI51220
aI51240
aI51260
aI51280
aI51300
aI51320
aI51340
aI51360
aI51380
aI51400
aI51420
aI51440
aI51460
aI51480
aI51500
aI51520
aI51540
aI51560
aI51580
aI51600
aI51620
aI51640
aI51660
aI51680
aI51700
aI51720
aI51740
aI51760
aI51780
aI51800
aI51820
aI51840
aI51860
aI51880
aI51900
aI51920
aI51940
aI51960
aI51980
aI52000
aI52020
aI52040
aI52060
aI52080
aI52100
aI52120
aI52140
aI52160
aI52180
aI52200
aI52220
aI52240
aI52260
aI52280
aI52300
aI52320
aI52340
aI52360
aI52380
aI52400
aI52420
aI52440
aI52460
aI52480
aI52500
aI52520
aI52540
aI52560
aI52580
aI52600
aI52620
aI52640
aI52660
aI52680
aI52700
aI52720
aI52740
aI52760
aI52780
aI52800
aI52820
aI52840
aI52860
aI52880
aI52900
aI52920
aI52940
aI52960
aI52980
aI53000
aI53020
aI53040
aI53060
aI53080
aI53100
aI53120
aI53140
aI53160
aI53180
aI53200
aI53220
aI53240
aI53260
aI53280
aI53300
aI53320
aI53340
aI53360
aI53380
aI53400
aI53420
aI53440
aI53460
aI53480
aI53500
aI53520
aI53540
aI53560
aI53580
aI53600
aI53620
aI53640
aI53660
aI53680
aI53700
aI53720
aI53740
aI53760
aI53780
aI53800
aI53820
aI53840
aI53860
aI53880
aI53900
aI53920
aI53940
aI53960
aI53980
aI54000
aI54020
aI54040
aI54060
aI54080
aI54100
aI54120
aI54140
aI54160
aI54180
aI54200
aI54220
aI54240
aI54260
aI54280
aI54300
aI54320
aI54340
aI54360
aI54380
aI54400
aI54420
aI54440
aI54460
aI54480
aI54500
aI54520
aI54540
aI54560
aI54580
aI54600
aI54620
aI54640
aI54660
aI54680
aI54700
aI54720
aI54740
aI54760
aI54780
aI54800
aI54820
aI54840
aI54860
aI54880
aI54900
aI54920
aI54940
aI54960
aI54980
aI55000
aI55020
aI55040
aI55060
aI55080
aI55100
aI55120
aI55140
aI55160
aI55180
aI55200
aI55220
aI55240
aI55260
aI55280
aI55300
aI55320
aI55340
aI55360
aI55380
aI55400
aI55420
aI55440
aI55460
aI55480
aI55500
aI55520
aI55540
aI55560
aI55580
aI55600
aI55620
aI55640
aI55660
aI55680
aI55700
aI55720
aI55740
aI55760
aI55780
aI55800
aI55820
aI55840
aI55860
aI55880
aI55900
aI55920
aI55940
aI55960
aI55980
aI56000
aI56020
aI56040
aI56060
aI56080
aI56100
aI56120
aI56140
aI56160
aI56180
aI56200
aI56220
aI56240
aI56260
aI56280
aI56300
aI56320
aI56340
aI56360
aI56380
aI56400
aI56420
aI56440
aI56460
aI56480
aI56500
aI56520
aI56540
aI56560
aI56580
aI56600
aI56620
aI56640
aI56660
aI56680
aI56700
aI56720
aI56740
aI56760
aI56780
aI56800
aI56820
aI56840
aI56860
aI56880
aI56900
aI56920
aI56940
aI56960
aI56980
aI57000
aI57020
aI57040
aI57060
aI57080
aI57100
aI57120
aI57140
aI57160
aI57180
aI57200
aI57220
aI57240
aI57260
aI57280
aI57300
aI57320
aI57340
aI57360
aI57380
aI57400
aI57420
aI57440
aI57460
aI57480
aI57500
aI57520
aI57540
aI57560
aI57580
aI57600
aI57620
aI57640
aI57660
aI57680
aI57700
aI57720
aI57740
aI57760
aI57780
aI57800
aI57820
aI57840
aI57860
aI57880
aI57900
aI57920
aI57940
aI57960
aI57980
aI58000
aI58020
aI58040
aI58060
aI58080
aI58100
aI58120
aI58140
aI58160
aI58180
aI58200
aI58220
aI58240
aI58260
aI58280
aI58300
aI58320
aI58340
aI58360
aI58380
aI58400
aI58420
aI58440
aI58460
aI58480
aI58500
aI58520
aI58540
aI58560
aI58580
aI58600
aI58620
aI58640
aI58660
aI58680
aI58700
aI58720
aI58740
aI58760
aI58780
aI58800
aI58820
aI58840
aI58860
aI58880
aI58900
aI58920
aI58940
aI58960
aI58980
aI59000
aI59020
aI59040
aI59060
aI59080
aI59100
aI59120
aI59140
aI59160
aI59180
aI59200
aI59220
aI59240
aI59260
aI59280
aI59300
aI59320
aI59340
aI59360
aI59380
aI59400
aI59420
aI59440
aI59460
aI59480
aI59500
aI59520
aI59540
aI59560
aI59580
aI59600
aI59620
aI59640
aI59660
aI59680
aI59700
aI59720
aI59740
aI59760
aI59780
aI59800
aI59820
aI59840
aI59860
aI59880
aI59900
aI59920
aI59940
aI59960
aI59980
aI60000
aI60020
aI60040
aI60060
aI60080
aI60100
aI60120
aI60140
aI60160
aI60180
aI60200
aI60220
aI60240
aI60260
aI60280
aI60300
aI60320
aI60340
aI60360
aI60380
aI60400
aI60420
aI60440
aI60460
aI60480
aI60500
aI60520
aI60540
aI60560
aI60580
aI60600
aI60620
aI60640
aI60660
aI60680
aI60700
aI60720
aI60740
aI60760
aI60780
aI60800
aI60820
aI60840
aI60860
aI60880
aI60900
aI60920
aI60940
aI60960
aI60980
aI61000
aI61020
aI61040
aI61060
aI61080
aI61100
aI61120
aI61140
aI61160
aI61180
aI61200
aI61220
aI61240
aI61260
aI61280
aI61300
aI61320
aI61340
aI61360
aI61380
aI61400
aI61420
aI61440
aI61460
aI61480
aI61500
aI61520
aI61540
aI61560
aI61580
aI61600
aI61620
aI61640
aI61660
aI61680
aI61700
aI61720
aI61740
aI61760
aI61780
aI61800
aI61820
aI61840
aI61860
aI61880
aI61900
aI61920
aI61940
aI61960
aI61980
aI62000
aI62020
aI62040
aI62060
aI62080
aI62100
aI62120
aI62140
aI62160
aI62180
aI62200
aI62220
aI62240
aI62260
aI62280
aI62300
aI62320
aI62340
aI62360
aI62380
aI62400
aI62420
aI62440
aI62460
aI62480
aI62500
aI62520
aI62540
aI62560
aI62580
aI62600
aI62620
aI62640
aI62660
aI62680
aI62700
aI62720
aI62740
aI62760
aI62780
aI62800
aI62820
aI62840
aI62860
aI62880
aI62900
aI62920
aI62940
aI62960
aI62980
aI63000
aI63020
aI63040
aI63060
aI63080
aI63100
aI63120
aI63140
aI63160
aI63180
aI63200
aI63220
aI63240
aI63260
aI63280
aI63300
aI63320
aI63340
aI63360
aI63380
aI63400
aI63420
aI63440
aI63460
aI63480
aI63500
aI63520
aI63540
aI63560
aI63580
aI63600
aI63620
aI63640
aI63660
aI63680
aI63700
aI63720
aI63740
aI63760
aI63780
aI63800
aI63820
aI63840
aI63860
aI63880
aI63900
aI63920
aI63940
aI63960
aI63980
aI64000
aI64020
aI64040
aI64060
aI64080
aI64100
aI64120
aI64140
aI64160
aI64180
aI64200
aI64220
aI64240
aI64260
aI64280
aI64300
aI64320
aI64340
aI64360
aI64380
aI64400
aI64420
aI64440
aI64460
aI64480
aI64500
aI64520
aI64540
aI64560
aI64580
aI64600
aI64620
aI64640
aI64660
aI64680
aI64700
aI64720
aI64740
aI64760
aI64780
aI64800
aI64820
aI64840
aI64860
aI64880
aI64900
aI64920
aI64940
aI64960
aI64980
aI65000
aI65020
aI65040
aI65060
aI65080
aI65100
aI65120
aI65140
aI65160
aI65180
aI65200
aI65220
aI65240
aI65260
aI65280
aI65300
aI65320
aI65340
aI65360
aI65380
aI65400
aI65420
aI65440
aI65460
aI65480
aI65500
aI65520
aI65540
aI65560
aI65580
aI65600
aI65620
aI65640
aI65660
aI65680
aI65700
aI65720
aI65740
aI65760
aI65780
aI65800
aI65820
aI65840
aI65860
aI65880
aI65900
aI65920
aI65940
aI65960
aI65980
aI66000
aI66020
aI66040
aI66060
aI66080
aI66100
aI66120
aI66140
aI66160
aI66180
aI66200
aI66220
aI66240
aI66260
aI66280
aI66300
aI66320
aI66340
aI66360
aI66380
aI66400
aI66420
aI66440
aI66460
aI66480
aI66500
aI66520
aI66540
aI66560
aI66580
aI66600
aI66620
aI66640
a(lp4
F45213.599999999999
aF45611.300000000003
aF33773.900000000001
aF27133.900000000001
aF26563.700000000001
aF22849.400000000001
aF20830
aF27657.900000000001
aF20775.299999999999
aF21701
aF21295.599999999999
aF19060
aF17963.599999999999
aF17052.299999999999
aF16817.599999999999
aF17137.5
aF17954.700000000001
aF15604.9
aF16857.400000000001
aF16229.9
aF14869.200000000001
aF14370.299999999999
aF15143.6
aF14276.299999999999
aF16965.200000000001
aF18405
aF16408.799999999999
aF14596.700000000001
aF14392.5
aF14315.700000000001
aF15765
aF14082
aF14883.9
aF14794.299999999999
aF13447.9
aF15691.299999999999
aF14562.200000000001
aF14869
aF13220.9
aF15495.200000000001
aF14566.6
aF15850.4
aF16728
aF13689.200000000001
aF11213.799999999999
aF14267.9
aF12096.299999999999
aF15300.9
aF13746.799999999999
aF12828.299999999999
aF14121
aF11717.799999999999
aF12037.9
aF14619
aF14493.700000000001
aF12009.4
aF13504.200000000001
aF12778.4
aF12665.6
aF13452
aF11042.4
aF11531.700000000001
aF12592.700000000001
aF11674.1
aF13465.9
aF16348.299999999999
aF14460.799999999999
aF13284
aF14077.200000000001
aF14321.9
aF12826.700000000001
aF14047.799999999999
aF17030.5
aF11804.6
aF13676.299999999999
aF13201
aF15852.799999999999
aF13168.299999999999
aF14410.9
aF12746.4
aF14684.1
aF12705.200000000001
aF11988.200000000001
aF15438.799999999999
aF12118.200000000001
aF12115.1
aF13587.700000000001
aF12382.1
aF11773.4
aF13422.9
aF14317.1
aF15115.9
aF11880
aF11620.9
aF12269.200000000001
aF12530.200000000001
aF11691.299999999999
aF12718.5
aF14243
aF13134.5
aF13270
aF12372.200000000001
aF10939.9
aF14333.200000000001
aF12931.6
aF9914.6700000000001
aF11927
aF12049.200000000001
aF14001.1
aF12774.5
aF14805.200000000001
aF13625.799999999999
aF12253.799999999999
aF12399.799999999999
aF13483.299999999999
aF13744.200000000001
aF10602
aF14036.6
aF14232.299999999999
aF13475.9
aF13875.5
aF12699.700000000001
aF14273.200000000001
aF12264.200000000001
aF10533.6
aF14354.299999999999
aF11624.700000000001
aF13111.1
aF14223.9
aF10456.799999999999
aF11547.799999999999
aF15741.6
aF12426.700000000001
aF14437.6
aF11440.5
aF13423.9
aF11421
aF11837
aF10926
aF13724.799999999999
aF12684.1
aF11274.6
aF11629.799999999999
aF15025.4
aF11483.5
aF10341.1
aF14644.700000000001
aF11867.799999999999
aF13525.4
aF12107.5
aF11449.700000000001
aF12514.6
aF11653.9
aF12325.700000000001
aF12453
aF11938.799999999999
aF14719.1
aF11469
aF11954.9
aF11715.799999999999
aF11919
aF9909.2299999999996
aF12955.4
aF11126.9
aF12034.200000000001
aF11325
aF13187.700000000001
aF11790.700000000001
aF11262.6
aF10056
aF12531
aF13388.5
aF13911.4
aF13779.799999999999
aF12087.200000000001
aF12581.1
aF13149
aF12073.700000000001
aF11868.299999999999
aF12471
aF11434.6
aF10452.4
aF11862.5
aF10683.9
aF9393.8999999999996
aF12796
aF10627.299999999999
aF11307.9
aF10805.799999999999
aF13607.9
aF12558.6
aF12529.4
aF11068.200000000001
aF11529.700000000001
aF12220.700000000001
aF9815.8999999999996
aF12581.9
aF9988.2900000000009
aF10576.5
aF12819.5
aF9213.6700000000001
aF10720.200000000001
aF11796.799999999999
aF16116.200000000001
aF14237.4
aF12680.299999999999
aF11717.1
aF10239.299999999999
aF12122.200000000001
aF10898.4
aF13012.5
aF11516.5
aF8993.2000000000007
aF14395.700000000001
aF13104.299999999999
aF11676.6
aF12202.4
aF11922
aF12589.799999999999
aF9479.3500000000004
aF12482.5
aF12346.799999999999
aF10775
aF13064.700000000001
aF11751
aF10410.200000000001
aF13211.6
aF10305.4
aF11884.200000000001
aF12388.5
aF12419.9
aF13762.5
aF9790.9400000000005
aF11187.700000000001
aF11235
aF12876.799999999999
aF11500
aF10869.799999999999
aF12847.299999999999
aF10488.5
aF10735
aF11351
aF10228.200000000001
aF14364.200000000001
aF10122.5
aF10111.299999999999
aF11422.6
aF12406.5
aF11533.9
aF11746.200000000001
aF11555.5
aF12884.200000000001
aF12080.200000000001
aF11509.6
aF12584.799999999999
aF10953.200000000001
aF12540.1
aF13083.5
aF10378.799999999999
aF12151.299999999999
aF11359.799999999999
aF12399.200000000001
aF10406.4
aF10187.6
aF10331.4
aF10035.6
aF12867.9
aF11456.799999999999
aF13118.1
aF10160.6
aF12262
aF10198.700000000001
aF12113.5
aF10245.299999999999
aF9973.2700000000004
aF11751.200000000001
aF10583
aF11298.299999999999
aF11133.5
aF8899.5100000000002
aF11941.299999999999
aF11518.299999999999
aF12297
aF10053.1
aF10945.299999999999
aF13114.200000000001
aF11774.5
aF11521
aF10575.4
aF12562.4
aF10535.799999999999
aF11323.4
aF8864.7399999999998
aF10279.1
aF9261.6399999999994
aF12725.799999999999
aF12933.200000000001
aF9789.8500000000004
aF11317.299999999999
aF10119.299999999999
aF10912.5
aF11680.799999999999
aF9293.4599999999991
aF13678.200000000001
aF10910.700000000001
aF12599
aF9665.0200000000004
aF13191.799999999999
aF10694.799999999999
aF10026.1
aF11456.700000000001
aF10410.6
aF9389.3899999999994
aF11717.299999999999
aF11369.200000000001
aF12336
aF12157.5
aF10457.5
aF10512.4
aF10475.200000000001
aF11252.6
aF11150.200000000001
aF10042.299999999999
aF12327.200000000001
aF9993.2299999999996
aF12407.200000000001
aF8850.1700000000001
aF10923.799999999999
aF10383
aF11900.9
aF10238.200000000001
aF10512.799999999999
aF9341.25
aF10938.6
aF11399.200000000001
aF10654
aF10253.200000000001
aF12337
aF11811.700000000001
aF11247.299999999999
aF12125.799999999999
aF10818.9
aF11952
aF11003.299999999999
aF10338.5
aF10835.1
aF10612.799999999999
aF11299.9
aF12035.6
aF9676.0499999999993
aF11911.4
aF11734.299999999999
aF11843.200000000001
aF12016
aF13252.9
aF11813.6
aF11067.799999999999
aF11563
aF11500.4
aF9267.3500000000004
aF12187
aF12704.1
aF10664.799999999999
aF11211.700000000001
aF11611.6
aF11115.6
aF9813.1599999999999
aF12124.299999999999
aF11075.6
aF10620.700000000001
aF11446.9
aF11392.299999999999
aF9403.4200000000001
aF10847.700000000001
aF10744.200000000001
aF10733.1
aF11094
aF11166.799999999999
aF9535.2800000000007
aF10605
aF11063.299999999999
aF10286.799999999999
aF9486.2000000000007
aF10777.799999999999
aF9525.5200000000004
aF10680.1
aF9238.3500000000004
aF10724.5
aF11357
aF11705.700000000001
aF10022.200000000001
aF9921.6200000000008
aF11512.299999999999
aF12423
aF10976.5
aF10900.9
aF10708.799999999999
aF13684.799999999999
aF10437.6
aF9378.6900000000005
aF12545.200000000001
aF10582.1
aF12046.6
aF11003.1
aF11071.700000000001
aF11638.700000000001
aF10587.299999999999
aF10878.299999999999
aF11370.799999999999
aF10283
aF11051.9
aF11805.5
aF10935.700000000001
aF8810.8999999999996
aF11517.6
aF8642.4500000000007
aF10950.1
aF10227.200000000001
aF12402.1
aF11473.299999999999
aF9441.3600000000006
aF12301.4
aF8968.8400000000001
aF11166.799999999999
aF11508.5
aF8772.3799999999992
aF10029.1
aF10862.700000000001
aF9813.3899999999994
aF12490.5
aF9897.2800000000007
aF13488.1
aF10359.299999999999
aF10579.9
aF9409.7700000000004
aF11549.9
aF12507
aF12005.1
aF10483.799999999999
aF9502.2000000000007
aF9346.6200000000008
aF11589.700000000001
aF9980.5499999999993
aF10091.6
aF11127.1
aF11485.799999999999
aF10020.9
aF10371.5
aF9563.2299999999996
aF10036.799999999999
aF10242.5
aF10078
aF10151
aF10206.1
aF12224.299999999999
aF10806.200000000001
aF11695
aF11070.9
aF11762.299999999999
aF9665.4699999999993
aF9054.3899999999994
aF9936.1700000000001
aF11130.4
aF9372.7199999999993
aF13188.299999999999
aF11541.5
aF10722.200000000001
aF8991.7600000000002
aF11049.6
aF9563.4099999999999
aF11083.799999999999
aF8239.25
aF10056.9
aF9151.6399999999994
aF12314.299999999999
aF11256.799999999999
aF12313.4
aF11759.6
aF9740.1399999999994
aF11216.4
aF12442.6
aF10069.6
aF11212.4
aF12012.799999999999
aF8881.6599999999999
aF11828.799999999999
aF9432.5900000000001
aF11132.9
aF10786.299999999999
aF10594
aF10790.5
aF8077.5500000000002
aF11382.700000000001
aF9974.7099999999991
aF12439.9
aF10532.700000000001
aF11193.4
aF10785.6
aF9700.4400000000005
aF10432.799999999999
aF9074.2099999999991
aF11919.200000000001
aF11846.4
aF8593.5100000000002
aF11063.200000000001
aF9122.9300000000003
aF11691.5
aF9891.3999999999996
aF9068.0599999999995
aF9384.4799999999996
aF10340.799999999999
aF9897.1700000000001
aF9093.1599999999999
aF10502
aF10995.6
aF9125
aF8209.4500000000007
aF9407.6100000000006
aF12345.700000000001
aF9766.8299999999999
aF11454.200000000001
aF11557.4
aF9206.1700000000001
aF10234.4
aF10908.9
aF10969.6
aF11324.299999999999
aF12236.700000000001
aF10741.200000000001
aF10454.5
aF10680.4
aF10387.200000000001
aF12133.799999999999
aF10453.4
aF9405.3299999999999
aF11070
aF10658.9
aF10626.1
aF11996.5
aF10243.6
aF10314.799999999999
aF10204.799999999999
aF9716.5900000000001
aF11137.200000000001
aF9603.7399999999998
aF11331.799999999999
aF9716.3099999999995
aF10234
aF10874.5
aF9271.5499999999993
aF10437.9
aF11079.799999999999
aF8964.75
aF9307.7399999999998
aF8452.5499999999993
aF10180
aF10177.799999999999
aF9276.2199999999993
aF10361.200000000001
aF9518.4400000000005
aF10878.1
aF9636.0300000000007
aF10413.4
aF9592.0400000000009
aF8712.8299999999999
aF9982.7299999999996
aF10436.1
aF9051.0200000000004
aF10653.9
aF8371.4699999999993
aF9944.3299999999999
aF11519.4
aF9424.1800000000003
aF8133.7600000000002
aF11143.6
aF10122.9
aF8990.7800000000007
aF11726.799999999999
aF10264.6
aF11159.200000000001
aF10980.799999999999
aF10649.6
aF8657.8199999999997
aF7998.8699999999999
aF10539.6
aF11192.9
aF10290.5
aF11728.1
aF9696.7199999999993
aF10810.700000000001
aF9282.8400000000001
aF12627.9
aF9369.7600000000002
aF7564.5200000000004
aF9058.2399999999998
aF10563.799999999999
aF12207.1
aF12451.799999999999
aF9055.9099999999999
aF11493.1
aF10053.200000000001
aF8151.0500000000002
aF11020.4
aF10057.6
aF10166.799999999999
aF9116.0799999999999
aF9731.6000000000004
aF10085.1
aF9731.6000000000004
aF9698.0400000000009
aF9377.4699999999993
aF11772.5
aF7600.4300000000003
aF10776.299999999999
aF10639.299999999999
aF10668.1
aF10722.4
aF8797.5900000000001
aF8289.1100000000006
aF9417.1299999999992
aF9388.5200000000004
aF9313.8099999999995
aF8569.4099999999999
aF9595.7800000000007
aF11194.200000000001
aF11097.200000000001
aF12943.5
aF8816.4400000000005
aF11918.5
aF10910
aF9231.5100000000002
aF8578.8700000000008
aF11291.4
aF10697
aF9952.1000000000004
aF9567.3799999999992
aF10657
aF10259.1
aF9060.8500000000004
aF11767.299999999999
aF9880.2299999999996
aF9134.7199999999993
aF9914.2800000000007
aF8885.6700000000001
aF9943.3799999999992
aF9166.1599999999999
aF8576.6599999999999
aF10122.200000000001
aF10158.4
aF9856
aF9341.1399999999994
aF11891.5
aF9639.3700000000008
aF12264.799999999999
aF10079.9
aF11634.1
aF9978.3299999999999
aF10844.5
aF8280.7700000000004
aF9251.4099999999999
aF9638.25
aF10411.299999999999
aF8976.8099999999995
aF11839.5
aF9711.6800000000003
aF9129.6299999999992
aF10849.4
aF10201.6
aF9376.4300000000003
aF10437.700000000001
aF10640.799999999999
aF10585.6
aF9207.75
aF10197.799999999999
aF9430.1900000000005
aF11131.799999999999
aF10811.200000000001
aF12481.6
aF11010.5
aF9165.7900000000009
aF10448.4
aF11109.6
aF10591.9
aF10653.4
aF10728.299999999999
aF8724
aF9303.5400000000009
aF8902.0799999999999
aF9764
aF9242.1700000000001
aF11180.6
aF10039.700000000001
aF12927.9
aF8722.9500000000007
aF8028.5299999999997
aF10818.5
aF9363.4699999999993
aF9878.6200000000008
aF11136.6
aF10297.1
aF7831.8400000000001
aF10059.700000000001
aF10412.5
aF10080.200000000001
aF8017.3199999999997
aF10720.9
aF10180.799999999999
aF9742.3500000000004
aF10285.200000000001
aF10555.200000000001
aF10443.700000000001
aF12383.1
aF9172.0499999999993
aF12096.1
aF9440.1800000000003
aF10374.1
aF11495.799999999999
aF9576.8799999999992
aF11215.4
aF10449.9
aF10345.700000000001
aF8612.4300000000003
aF10150.6
aF9669.2999999999993
aF8486.3600000000006
aF9971.0900000000001
aF12002.4
aF9889.7800000000007
aF10698.5
aF9901.2199999999993
aF9511.2099999999991
aF8633.3199999999997
aF10030.700000000001
aF10487.4
aF9634.4599999999991
aF10157.6
aF10263.5
aF10011.9
aF9185.8099999999995
aF10135.9
aF9122.5100000000002
aF11407.4
aF7937.8100000000004
aF10934.4
aF10140.1
aF11182.6
aF11044.200000000001
aF9393.6399999999994
aF8629.5900000000001
aF11328.5
aF10688.799999999999
aF9467.5
aF11324.200000000001
aF11242.9
aF10173.9
aF10626.799999999999
aF9823.6200000000008
aF12521.9
aF10004.700000000001
aF10875.6
aF12560.6
aF10542.799999999999
aF9197.6499999999996
aF8159.4300000000003
aF11389.9
aF9241.9099999999999
aF9869.4699999999993
aF10647
aF11931.4
aF10134.4
aF10919.200000000001
aF9117.5400000000009
aF8941.2399999999998
aF9029.5400000000009
aF9404.2999999999993
aF9576.4799999999996
aF11243.6
aF11127.200000000001
aF9954.3899999999994
aF10067.799999999999
aF9840.5400000000009
aF9098.0499999999993
aF10989.6
aF11166.700000000001
aF11185.200000000001
aF8732.5699999999997
aF9699.2000000000007
aF10151.4
aF10357.4
aF8767.5300000000007
aF8979.2199999999993
aF9710.4699999999993
aF8506.1100000000006
aF11865.799999999999
aF11139.5
aF9491.3500000000004
aF9369.1100000000006
aF9707.7900000000009
aF11091.200000000001
aF11669
aF9424.9899999999998
aF9402.6100000000006
aF9366.9400000000005
aF10432.700000000001
aF9698.3500000000004
aF11023
aF8921.5699999999997
aF10229
aF10196
aF10846
aF11254.799999999999
aF11019.700000000001
aF9719.0599999999995
aF11788.299999999999
aF9650.3999999999996
aF10883.299999999999
aF10208.299999999999
aF9295.1000000000004
aF9060.3999999999996
aF9428.3500000000004
aF10458.700000000001
aF11195.6
aF12154.1
aF10630.200000000001
aF11298.299999999999
aF9746.4699999999993
aF10842.1
aF8504.6499999999996
aF10748.9
aF9065.5499999999993
aF9526.9899999999998
aF11441.6
aF9460.8899999999994
aF10448.200000000001
aF8164.8400000000001
aF9314.7700000000004
aF9809.3899999999994
aF8883.0900000000001
aF10011.5
aF11160
aF11066.799999999999
aF9889.4200000000001
aF8513.7900000000009
aF9054.3299999999999
aF9997.0100000000002
aF11236.299999999999
aF9528.9799999999996
aF10837.700000000001
aF11259.299999999999
aF10814.1
aF9466.4599999999991
aF12018.5
aF10006
aF9148.1700000000001
aF9346.6200000000008
aF8868.2399999999998
aF10860.799999999999
aF9954.1200000000008
aF10122.700000000001
aF9468.4200000000001
aF9689.2000000000007
aF8895.0499999999993
aF11360.299999999999
aF9430.8299999999999
aF7920.0100000000002
aF11540.5
aF11050.200000000001
aF9076.6900000000005
aF9868.5
aF10527.5
aF10378.799999999999
aF12262.700000000001
aF10725.1
aF9541.6800000000003
aF11113.200000000001
aF10069.9
aF8169.2799999999997
aF8219.4400000000005
aF9959.6299999999992
aF9829.5300000000007
aF9358.3600000000006
aF9850.6100000000006
aF10503.9
aF8976.4300000000003
aF9700.9699999999993
aF11910
aF8236.4799999999996
aF9637.7299999999996
aF11550.4
aF10843.299999999999
aF10171.299999999999
aF9687
aF9612.8700000000008
aF9585.7399999999998
aF8880.5200000000004
aF9722.4400000000005
aF9775.0799999999999
aF11450.9
aF9251.3500000000004
aF9984.6299999999992
aF7944.3699999999999
aF8394.6100000000006
aF10298.799999999999
aF8585.3299999999999
aF9912.5799999999999
aF8121.3100000000004
aF8713.1499999999996
aF10311.799999999999
aF8390.3600000000006
aF8956.7600000000002
aF10326.299999999999
aF8579.8799999999992
aF12022.9
aF11323.6
aF10156.9
aF9777.5699999999997
aF9087.3600000000006
aF6988.8699999999999
aF9005.25
aF8524.7700000000004
aF8607.8700000000008
aF9945.7399999999998
aF10381.299999999999
aF10746.700000000001
aF10069.200000000001
aF10010.5
aF11349.799999999999
aF9903.6800000000003
aF10097.5
aF8966.5499999999993
aF10058.700000000001
aF11846.200000000001
aF10108.9
aF8259.3999999999996
aF10148.700000000001
aF10715.799999999999
aF9550.5300000000007
aF11206
aF8213.6100000000006
aF10477
aF9828.3899999999994
aF10971.6
aF9092.2199999999993
aF9573.6700000000001
aF9182.7999999999993
aF10480.299999999999
aF10579
aF8343.9400000000005
aF10003.6
aF9962.6499999999996
aF9965.8299999999999
aF10828.6
aF7800.9399999999996
aF9899.5200000000004
aF8295.4500000000007
aF9858.2600000000002
aF10443.799999999999
aF10206.700000000001
aF10565
aF9360.4799999999996
aF10634.1
aF11342.700000000001
aF10019.299999999999
aF9335.4599999999991
aF8724.6900000000005
aF10225.9
aF9337.3500000000004
aF9357.8700000000008
aF10415.200000000001
aF11292.200000000001
aF10615.4
aF9532.8199999999997
aF9969.1900000000005
aF10787.799999999999
aF11236.700000000001
aF10818.799999999999
aF9616.6900000000005
aF10022.4
aF9727.9599999999991
aF10241.299999999999
aF10017.200000000001
aF10475.6
aF7547.04
aF8779.3400000000001
aF9235.8999999999996
aF11429.299999999999
aF10316.1
aF8531.7900000000009
aF12467.299999999999
aF9076.4500000000007
aF8619.2800000000007
aF8367.8199999999997
aF10274.700000000001
aF10977.1
aF11169.299999999999
aF11185.4
aF10128.1
aF8606.4899999999998
aF11792.1
aF10196.5
aF10749.9
aF10084.6
aF11042.200000000001
aF10412.700000000001
aF13130
aF10491.6
aF9699.0200000000004
aF10677.299999999999
aF10231.4
aF11056.6
aF10897.299999999999
aF9936.6399999999994
aF9755.6299999999992
aF10572.200000000001
aF8608.6299999999992
aF9433.2600000000002
aF8994.4599999999991
aF10775.5
aF9027.2900000000009
aF10080.799999999999
aF10409.6
aF11056
aF8989.1900000000005
aF9190.6700000000001
aF8962.1900000000005
aF10443.799999999999
aF10573.9
aF8883.3999999999996
aF10131.1
aF9813.7800000000007
aF7951.7600000000002
aF9300.2800000000007
aF9438.9599999999991
aF11513.299999999999
aF10361.6
aF9387.6100000000006
aF9398.8500000000004
aF9789.6399999999994
aF10686.799999999999
aF10407.5
aF9699.8700000000008
aF8798.6200000000008
aF9538.2800000000007
aF8434.6200000000008
aF9199.5100000000002
aF11043.799999999999
aF10250
aF9968.9899999999998
aF11303.1
aF10675.9
aF11402.5
aF9000.6900000000005
aF9083.2099999999991
aF13424.1
aF9721.5400000000009
aF8349.3500000000004
aF10832.200000000001
aF9689.1499999999996
aF11129
aF10599.200000000001
aF10209.5
aF8153.1499999999996
aF11281
aF9501.2099999999991
aF8783.25
aF9159.3199999999997
aF9387.1900000000005
aF9692.9200000000001
aF9702.1100000000006
aF10073.1
aF9550.6399999999994
aF12570.4
aF9531
aF10849.9
aF11652.700000000001
aF13734.299999999999
aF8464.2999999999993
aF11638.4
aF10479.700000000001
aF10094.200000000001
aF10831.299999999999
aF10363.6
aF9578.3999999999996
aF9903.8199999999997
aF9137.6200000000008
aF10548.4
aF10082.4
aF9385.1800000000003
aF11564.799999999999
aF9640.1200000000008
aF9944.8700000000008
aF10579.1
aF10229.9
aF9738.6700000000001
aF11647.700000000001
aF10759.700000000001
aF9296.7900000000009
aF11526.9
aF9978.3600000000006
aF10319.700000000001
aF10596.9
aF11813.1
aF10437.4
aF9215.9200000000001
aF9979.2099999999991
aF10364.700000000001
aF9963.0400000000009
aF9641.0100000000002
aF8920.9200000000001
aF10282.9
aF10534.700000000001
aF9457.5100000000002
aF10802.700000000001
aF9008.6100000000006
aF10236.299999999999
aF10679.9
aF10664.6
aF9072.8299999999999
aF12855.4
aF11328.6
aF9472.9500000000007
aF11001.1
aF9728.8099999999995
aF9397.4599999999991
aF9236.25
aF10643.299999999999
aF11125.200000000001
aF8993.1399999999994
aF9189.1900000000005
aF10268.4
aF12589.6
aF10771.9
aF9045.0699999999997
aF9927.5699999999997
aF11868.200000000001
aF9110.4200000000001
aF9392.7999999999993
aF12346.799999999999
aF10104.200000000001
aF10059.799999999999
aF9026.9300000000003
aF10551.5
aF9334.6900000000005
aF9620.8500000000004
aF10042.200000000001
aF9888.8600000000006
aF10638.299999999999
aF10324.1
aF9891.2999999999993
aF10364.200000000001
aF10129.4
aF9831.8799999999992
aF7686.4499999999998
aF8784.8199999999997
aF10321.799999999999
aF11266.799999999999
aF10123.5
aF11603.6
aF10527.299999999999
aF10973
aF9651.6200000000008
aF11020
aF10737.5
aF9031.2000000000007
aF9422.7800000000007
aF10588.6
aF10869.6
aF10529.700000000001
aF10569.4
aF10637.1
aF9711.1700000000001
aF10596.299999999999
aF10378.9
aF10051.4
aF8853.9699999999993
aF11001.6
aF7950.54
aF8858
aF8441.1599999999999
aF9816.3500000000004
aF10515.5
aF11812.9
aF11152.1
aF10253.5
aF10649.4
aF12909.5
aF10765.700000000001
aF12786.5
aF10172.4
aF9316.0100000000002
aF10528.6
aF10111.700000000001
aF11406.200000000001
aF8813
aF9071.5900000000001
aF12182.200000000001
aF10297.799999999999
aF9828.6499999999996
aF10116.299999999999
aF12187.6
aF8397.6800000000003
aF10208.4
aF11562.799999999999
aF8015.7200000000003
aF11970.4
aF9864.1000000000004
aF10789.299999999999
aF10733.9
aF8718.5499999999993
aF9473.1100000000006
aF9145.0799999999999
aF10818.6
aF9738.3199999999997
aF9751.7999999999993
aF9697.7900000000009
aF9938.6200000000008
aF11906.6
aF9301.2099999999991
aF11270
aF9495.6499999999996
aF11282.200000000001
aF8444.0300000000007
aF9247.6299999999992
aF7783.9300000000003
aF8680.3700000000008
aF8551.0400000000009
aF10153.299999999999
aF9985.6000000000004
aF11206.5
aF9682.4300000000003
aF10605.6
aF10871.1
aF9523.2000000000007
aF9442.5300000000007
aF7361.5799999999999
aF8365.5699999999997
aF9452.9799999999996
aF9794.3400000000001
aF9997.4400000000005
aF8724.0699999999997
aF9766.8799999999992
aF11081
aF8910.0699999999997
aF10027.5
aF11060.9
aF10947.799999999999
aF9828.3299999999999
aF10813.9
aF10649.9
aF13256.200000000001
aF8949.8500000000004
aF10352.700000000001
aF10348.200000000001
aF8319.0900000000001
aF11422.1
aF10381
aF9948.0699999999997
aF9886.0400000000009
aF11399.799999999999
aF8749.7000000000007
aF13685.299999999999
aF10067.9
aF8511.4599999999991
aF10365.9
aF10225.200000000001
aF10534.700000000001
aF10982.799999999999
aF10550.799999999999
aF10510.299999999999
aF9806.0100000000002
aF10047.200000000001
aF10542.799999999999
aF10839.5
aF9831.9300000000003
aF11917.1
aF9390.2000000000007
aF10771.299999999999
aF9282.4300000000003
aF10725.9
aF9755.3999999999996
aF14656.9
aF9829.7800000000007
aF7165.6899999999996
aF10779.5
aF10095.200000000001
aF10208.1
aF10351.5
aF11166.9
aF9018.3400000000001
aF10176.1
aF11035.200000000001
aF10695.799999999999
aF10067.200000000001
aF7969.9300000000003
aF10123.200000000001
aF9860.5499999999993
aF8408.7900000000009
aF8693.8199999999997
aF10136.1
aF9477.6900000000005
aF9352.4099999999999
aF8055.3800000000001
aF9449.2800000000007
aF10745.5
aF10526.4
aF9744.5
aF11556.200000000001
aF10395
aF10344.5
aF7516.6599999999999
aF10408.5
aF10622.299999999999
aF10376
aF11046.5
aF12019.1
aF9312.7700000000004
aF9823.2000000000007
aF9759.1200000000008
aF9990.6299999999992
aF10677.6
aF9892.5499999999993
aF9429.7600000000002
aF9869.6200000000008
aF9863.2600000000002
aF10365.700000000001
aF10418
aF8527.8199999999997
aF10337
aF8749.5400000000009
aF10851.6
aF9966.9500000000007
aF10484.6
aF9409.3700000000008
aF10709.799999999999
aF10278.799999999999
aF10227.299999999999
aF10428.9
aF10035.299999999999
aF9232.8600000000006
aF10055.6
aF9666.2000000000007
aF9004.1700000000001
aF10086.200000000001
aF10738.9
aF10809.4
aF10114.700000000001
aF8597.2999999999993
aF8561.2000000000007
aF9634.3799999999992
aF11530.6
aF10927.9
aF9244.8700000000008
aF11909.6
aF9726.2000000000007
aF11800.200000000001
aF10567.700000000001
aF8461.7900000000009
aF10701.4
aF9500.1100000000006
aF10291.6
aF10194.9
aF10274.5
aF10761.200000000001
aF10106.200000000001
aF9509.1900000000005
aF9898.2999999999993
aF10634.799999999999
aF10739.9
aF9428.7099999999991
aF11571.9
aF9246.3299999999999
aF10507.299999999999
aF9656.2700000000004
aF9606.2800000000007
aF10787.4
aF9332.1100000000006
aF10134.299999999999
aF10857.799999999999
aF9875.2199999999993
aF13025.200000000001
aF7924.1400000000003
aF10689.1
aF11255.9
aF10782.4
aF10701.6
aF10482.5
aF9476.1900000000005
aF10114.5
aF11404.799999999999
aF10555.6
aF10497.5
aF8408.6900000000005
aF11083.4
aF9717.1100000000006
aF11014.6
aF10467.9
aF10653.9
aF9487.8099999999995
aF10980.9
aF11317.799999999999
aF10572
aF11517.4
aF11104.1
aF8393.1599999999999
aF9640.5799999999999
aF9766.4899999999998
aF10711.6
aF11124.700000000001
aF9844.8400000000001
aF9136.5599999999995
aF10207
aF8725.2900000000009
aF9972.1100000000006
aF9398.4300000000003
aF9071.2099999999991
aF8687.8899999999994
aF8866.3700000000008
aF10323.200000000001
aF8996.25
aF11915.1
aF8973.8299999999999
aF9521.2700000000004
aF9496.4799999999996
aF10378.799999999999
aF9326.2099999999991
aF11258.799999999999
aF8727.4899999999998
aF10804
aF11492.700000000001
aF9189.2000000000007
aF8792.2999999999993
aF10993.299999999999
aF11829.200000000001
aF11871.4
aF10906.9
aF10434.6
aF9539.5499999999993
aF10865.299999999999
aF11829.700000000001
aF10016.4
aF9434.0499999999993
aF8557.0599999999995
aF10906
aF10469.799999999999
aF13602.5
aF9487.0300000000007
aF10465.700000000001
aF9282.2700000000004
aF10063.9
aF9899.25
aF11589.1
aF9577.6800000000003
aF8183.7700000000004
aF12964.200000000001
aF10001.1
aF10083.4
aF8374.0400000000009
aF9776.9599999999991
aF11354.9
aF9319.4200000000001
aF11376.5
aF9505.6299999999992
aF9782.0699999999997
aF14025.799999999999
aF10407.1
aF8435.1100000000006
aF11227.9
aF8746.5300000000007
aF9297.3799999999992
aF9472.9200000000001
aF10239.4
aF8800.3999999999996
aF8423.7600000000002
aF9394.3099999999995
aF10355.799999999999
aF9177.0300000000007
aF11174.1
aF10572.1
aF10628.6
aF11210.700000000001
aF10422.6
aF9550.9799999999996
aF9948.0100000000002
aF9967.3700000000008
aF9741.3799999999992
aF10655.299999999999
aF9333.7099999999991
aF9639.5799999999999
aF11262.700000000001
aF10812.700000000001
aF11976.9
aF10755.9
aF10280.200000000001
aF13769.799999999999
aF10106.799999999999
aF9557.7800000000007
aF10763.299999999999
aF10096.6
aF8058.3299999999999
aF10869.4
aF10561.5
aF9415.1000000000004
aF10408.9
aF9323.5900000000001
aF11942
aF9392.2299999999996
aF10089.700000000001
aF9977.9400000000005
aF9240.3700000000008
aF10825.4
aF7719.71
aF9981.0300000000007
aF10193.1
aF9119.1000000000004
aF10952.4
aF11432.200000000001
aF8693.1299999999992
aF9295.2999999999993
aF10207.700000000001
aF9117.9699999999993
aF9105.7800000000007
aF7419.4499999999998
aF8508.2399999999998
aF10961.9
aF11589.700000000001
aF9847.6900000000005
aF9314.3600000000006
aF10489.6
aF10304.700000000001
aF10992.5
aF10884.700000000001
aF11627.299999999999
aF10179.799999999999
aF11380.4
aF11011.700000000001
aF10645.799999999999
aF9328.8400000000001
aF9832.7600000000002
aF11606.200000000001
aF9170.8700000000008
aF10128.700000000001
aF10616.299999999999
aF8356.5
aF9215.2299999999996
aF8206.9899999999998
aF14015.6
aF10004.1
aF9490.4899999999998
aF8356.9899999999998
aF10890.9
aF10714.1
aF10715.299999999999
aF11129.4
aF9798.0300000000007
aF9334.5499999999993
aF10526.1
aF9231.75
aF10935.9
aF8951.7600000000002
aF9485.5300000000007
aF10130.299999999999
aF11063.5
aF9923.6800000000003
aF10156.700000000001
aF9109.9200000000001
aF11482
aF11369.799999999999
aF9990.2399999999998
aF9372.1299999999992
aF9774.2600000000002
aF10090.6
aF11746.5
aF11145
aF11215.299999999999
aF10179.6
aF10692
aF10488.5
aF8123.29
aF9019.5200000000004
aF8761.7600000000002
aF10176.5
aF9824.5599999999995
aF9974.7299999999996
aF9673.8400000000001
aF10692.4
aF11897.9
aF10654.700000000001
aF9115.1800000000003
aF9545.7199999999993
aF11150.5
aF10220.700000000001
aF10074.299999999999
aF9600.8199999999997
aF10119.200000000001
aF9867.6599999999999
aF9973.9500000000007
aF12449.4
aF9922.6200000000008
aF9497.5599999999995
aF10322.700000000001
aF9031.8199999999997
aF9216.6000000000004
aF9773.4300000000003
aF9655.75
aF9115.8299999999999
aF9846.3099999999995
aF8983.6599999999999
aF9437.5400000000009
aF10405.4
aF9541.2700000000004
aF11040.5
aF10758.9
aF11650.9
aF9402.3999999999996
aF10408.299999999999
aF9385.8099999999995
aF9972.5300000000007
aF11276.299999999999
aF10518.5
aF10067.299999999999
aF7797.3100000000004
aF9305.5499999999993
aF12058.9
aF10656.1
aF12082.299999999999
aF11086.5
aF7611.2399999999998
aF10411.6
aF10847.6
aF10610.200000000001
aF11265.200000000001
aF11181.1
aF10596.200000000001
aF12243.299999999999
aF10534.299999999999
aF9898.9099999999999
aF11503.799999999999
aF10587.9
aF9971.0799999999999
aF10613.299999999999
aF9071.0300000000007
aF10633.299999999999
aF9946.6200000000008
aF10374
aF8330.4500000000007
aF9907.8799999999992
aF11208.1
aF8214.7800000000007
aF9199.8400000000001
aF9001.9300000000003
aF9625.0599999999995
aF10019.700000000001
aF9104.6299999999992
aF11538
aF9852.6900000000005
aF10926.799999999999
aF9665.3799999999992
aF9959.5300000000007
aF10869.299999999999
aF9995.6800000000003
aF9423.4200000000001
aF11307.299999999999
aF10649.799999999999
aF9906.3099999999995
aF8213.3899999999994
aF11086.1
aF10791.700000000001
aF9873.3700000000008
aF10732.6
aF9416.7600000000002
aF9208.2800000000007
aF10458.9
aF11656.1
aF10338.4
aF8930.8500000000004
aF9472.1499999999996
aF11059.700000000001
aF10710.1
aF10949.700000000001
aF9758.4400000000005
aF9851.9899999999998
aF10109.9
aF11357.799999999999
aF10468.4
aF9741.7700000000004
aF11002.299999999999
aF12400.5
aF8418.0100000000002
aF10766.9
aF11047.299999999999
aF8791.1399999999994
aF10461.6
aF9074.7600000000002
aF12702.6
aF10612.1
aF8530.1599999999999
aF8439.8500000000004
aF9849.2700000000004
aF10299.6
aF10801.700000000001
aF10262.4
aF9233.8700000000008
aF9274.3299999999999
aF9788.6599999999999
aF9365.4899999999998
aF9944.6299999999992
aF9676.4099999999999
aF10614.799999999999
aF10236.200000000001
aF9197.2900000000009
aF8957.8700000000008
aF9166.0100000000002
aF9820.5200000000004
aF10510.9
aF8865.9200000000001
aF12254.700000000001
aF9393.8899999999994
aF9403.4200000000001
aF9657.1299999999992
aF10763.200000000001
aF9304.1299999999992
aF9299.7099999999991
aF10455.5
aF8972.0400000000009
aF12066
aF8989.9799999999996
aF9815.7399999999998
aF9857.9400000000005
aF8237.9699999999993
aF10279.799999999999
aF10311.9
aF9722.3099999999995
aF10677.200000000001
aF8453.8299999999999
aF10088.1
aF9437.4899999999998
aF14081.700000000001
aF10258.799999999999
aF10831.299999999999
aF10875.6
aF10001.200000000001
aF9659.6100000000006
aF10428.6
aF11795.799999999999
aF10347.9
aF9857.5900000000001
aF8968.3999999999996
aF10340.299999999999
aF8956.9699999999993
aF10573.700000000001
aF9236.4400000000005
aF11517.4
aF9896.9799999999996
aF11260
aF11400.4
aF9954.2299999999996
aF10275
aF10957.1
aF8973.2700000000004
aF9734.6399999999994
aF10748.1
aF9501.8400000000001
aF9711.4699999999993
aF8860.8700000000008
aF10018.200000000001
aF10878.9
aF9542.3500000000004
aF10166.4
aF8356.9799999999996
aF9683.8199999999997
aF9506.2999999999993
aF10493.1
aF9400.7199999999993
aF10500.4
aF9609.9899999999998
aF9162.0100000000002
aF8681.6599999999999
aF9327.2999999999993
aF9469.9699999999993
aF9658.1800000000003
aF10028.200000000001
aF7842.8699999999999
aF10439.799999999999
aF8029.6300000000001
aF11904.200000000001
aF10760.700000000001
aF8855.1900000000005
aF10011.9
aF9212.4300000000003
aF9651.3999999999996
aF10312.4
aF12162.9
aF9350.0200000000004
aF10356.200000000001
aF11968.200000000001
aF9483.6100000000006
aF10036.5
aF10418.1
aF11905.5
aF10090.9
aF11278
aF8723.3199999999997
aF8553.2700000000004
aF10666.1
aF12631.1
aF9634.5300000000007
aF9698.1200000000008
aF9265.0799999999999
aF9187.2800000000007
aF10872.799999999999
aF7028.4200000000001
aF9797
aF10965.4
aF9725.6900000000005
aF9684.75
aF9353.0300000000007
aF10460.1
aF10650.299999999999
aF11155.6
aF9584.5900000000001
aF8613.6900000000005
aF8291.6299999999992
aF10521.799999999999
aF10594.299999999999
aF11623
aF9045.5100000000002
aF9562.2800000000007
aF10379.6
aF10561.1
aF10040.799999999999
aF10682.9
aF12930.9
aF9621.75
aF10992.5
aF10260
aF9941.3700000000008
aF9706
aF11572.9
aF11133.9
aF9164.6200000000008
aF9565.6200000000008
aF10355.9
aF10500.1
aF10023.799999999999
aF12219.700000000001
aF9699
aF9390.9300000000003
aF10350.799999999999
aF10207.4
aF8450.5
aF11320.4
aF10249
aF9936.6299999999992
aF10891.6
aF8341.75
aF10238.5
aF10077.1
aF10725.1
aF10834.6
aF9946.1100000000006
aF9147.7700000000004
aF9714.75
aF9973.0699999999997
aF9566.8600000000006
aF10131.6
aF10031.299999999999
aF8996.9300000000003
aF10529.1
aF8168.5900000000001
aF9694.5200000000004
aF8808.1200000000008
aF10384.700000000001
aF7776.1199999999999
aF12327.1
aF9473.7700000000004
aF11097
aF11039.6
aF10477.6
aF10860.799999999999
aF9946.6299999999992
aF10458.6
aF8894.7900000000009
aF10784.5
aF9302.3999999999996
aF10107.200000000001
aF11107.200000000001
aF8743.8199999999997
aF9884.3199999999997
aF9624.1599999999999
aF11947.4
aF10732.200000000001
aF9670.9300000000003
aF9302.0799999999999
aF9538.4699999999993
aF10049.700000000001
aF8811.4400000000005
aF9868.8899999999994
aF7892.6599999999999
aF11067.799999999999
aF9140.1000000000004
aF12560.700000000001
aF9828.8799999999992
aF9619.5699999999997
aF11126.4
aF7803.21
aF9661.5100000000002
aF9384.1000000000004
aF10502.700000000001
aF9746.8999999999996
aF10771.4
aF10897.299999999999
aF8947.9899999999998
aF10480.200000000001
aF10039.1
aF8959.7999999999993
aF10499.1
aF11870.700000000001
aF11371.4
aF9945.7399999999998
aF10193.200000000001
aF9080.6399999999994
aF9279.6200000000008
aF9915.9400000000005
aF11427.1
aF10420.299999999999
aF9976.3400000000001
aF9356.2299999999996
aF10025
aF9648.4200000000001
aF9747.0799999999999
aF9710.2800000000007
aF9321.0400000000009
aF9143.1499999999996
aF11510.5
aF9857.9599999999991
aF11432.799999999999
aF10047
aF8593.0100000000002
aF9297
aF8068.5500000000002
aF9126.7600000000002
aF9896.8500000000004
aF10626.5
aF10054
aF8924
aF8542.2199999999993
aF8612.4899999999998
aF9065.7000000000007
aF8564.6299999999992
aF10444.299999999999
aF10618.9
aF9630.3099999999995
aF9668.0200000000004
aF10116.700000000001
aF11493.799999999999
aF10328.700000000001
aF8251.2999999999993
aF9029.6800000000003
aF10899.6
aF8714
aF10486.6
aF10245.9
aF10380.200000000001
aF10941.1
aF10927.1
aF8746.4300000000003
aF10584.9
aF11027.9
aF10758.799999999999
aF8797.5300000000007
aF10088.4
aF10180.700000000001
aF10839.200000000001
aF11189.9
aF9487.9300000000003
aF10581.200000000001
aF9717
aF9653.8099999999995
aF10485.1
aF9609.4400000000005
aF11383.4
aF11696
aF9468.6499999999996
aF11146.5
aF10120.6
aF9043.3400000000001
aF11232.5
aF9885.2399999999998
aF10774.5
aF9467.3299999999999
aF9269.1000000000004
aF10861.4
aF10374.6
aF9725.4400000000005
aF9542.4699999999993
aF9461.8099999999995
aF10517
aF9302.0900000000001
aF8920.7700000000004
aF10967.4
aF9452.8600000000006
aF9584.0200000000004
aF9732.9699999999993
aF8350.8700000000008
aF11306.4
aF8957.3999999999996
aF9811
aF9625.3899999999994
aF9646.8700000000008
aF9618.9200000000001
aF9355.0100000000002
aF10340.6
aF10271
aF11117.9
aF8711.8600000000006
aF11033.299999999999
aF11491.700000000001
aF9306.1100000000006
aF9259.6000000000004
aF9843.4099999999999
aF9357.9200000000001
aF12153
aF10184.5
aF10876.200000000001
aF10413.200000000001
aF10538.4
aF9574.0699999999997
aF9623.1499999999996
aF8112.1999999999998
aF10121.1
aF11110
aF9888.2000000000007
aF8957.4799999999996
aF9367.7600000000002
aF10539
aF10942.200000000001
aF8374.7900000000009
aF10436.200000000001
aF9063.2299999999996
aF9314.5599999999995
aF12199
aF9664.7000000000007
aF8595.6000000000004
aF11771.9
aF11260.9
aF9921.1399999999994
aF10043.4
aF9076.4500000000007
aF9379.8199999999997
aF9974.4899999999998
aF10188.200000000001
aF9689.2299999999996
aF9431.7600000000002
aF9446.3500000000004
aF10060.200000000001
aF9816.0799999999999
aF9589.8500000000004
aF9522.6299999999992
aF10092.200000000001
aF10115
aF11625.799999999999
aF10340.9
aF9898.0400000000009
aF11088.5
aF10813.1
aF10415.700000000001
aF10675.700000000001
aF10065.5
aF9496.5100000000002
aF14569.799999999999
aF10610.700000000001
aF8486.6200000000008
aF10300
aF10790.299999999999
aF9734.3099999999995
aF10329.200000000001
aF10979.4
aF10127.700000000001
aF8635.8400000000001
aF9475.75
aF9812.7199999999993
aF10073.6
aF9483.6599999999999
aF10540.6
aF8309.8099999999995
aF10668
aF10275.200000000001
aF9774.5499999999993
aF9159.7900000000009
aF10244.299999999999
aF9137.9300000000003
aF10551.299999999999
aF9156.9200000000001
aF12620.1
aF9419.7800000000007
aF11101.4
aF10635.1
aF8842.9599999999991
aF11264.4
aF10014.299999999999
aF10593.5
aF8368.7800000000007
aF12374.200000000001
aF10205.9
aF10276.1
aF9964.8500000000004
aF12259.6
aF12090.9
aF11002.4
aF10125.6
aF11276.5
aF10718.799999999999
aF8938.2199999999993
aF9575.8299999999999
aF9054.3600000000006
aF10477.700000000001
aF10955.9
aF13032.6
aF12367.5
aF10061.1
aF9886.4099999999999
aF11078.799999999999
aF9358.4599999999991
aF8035.3900000000003
aF12119.1
aF10213.4
aF8456.8400000000001
aF11564.6
aF10351.4
aF7962.04
aF8474.2299999999996
aF7894.5699999999997
aF9145.6800000000003
aF11067.1
aF9901.1399999999994
aF10577.200000000001
aF10841.4
aF11087.5
aF9211.6700000000001
aF8308.2800000000007
aF10426.799999999999
aF8681.0599999999995
aF10949.9
aF10828.5
aF9413.2299999999996
aF12001.799999999999
aF12507.4
aF9601.2199999999993
aF10485.700000000001
aF10500.1
aF9793.3500000000004
aF11579.1
aF12918.799999999999
aF10928.799999999999
aF9350.4699999999993
aF11090.6
aF10426.9
aF10551.9
aF9325.2099999999991
aF10987.4
aF8452.9500000000007
aF10856.1
aF10029.700000000001
aF11150.5
aF10588.6
aF13800.700000000001
aF9261.4899999999998
aF8816.5799999999999
aF11300.799999999999
aF9421.3299999999999
aF10757.5
aF11602.200000000001
aF9381.1100000000006
aF8940.7099999999991
aF11923.6
aF9563.7700000000004
aF9085.0900000000001
aF10689.299999999999
aF10651.799999999999
aF10160.299999999999
aF7862.5600000000004
aF10451.6
aF10164.299999999999
aF11598.200000000001
aF9152.1599999999999
aF10889.799999999999
aF9816.0499999999993
aF10831.4
aF9591.4300000000003
aF8921.9200000000001
aF8210.8199999999997
aF8414.4200000000001
aF10483
aF11324.200000000001
aF9279.8999999999996
aF9976.6499999999996
aF10629.9
aF9521.7600000000002
aF11545.9
aF9776.7900000000009
aF9759.3199999999997
aF9461.8999999999996
aF10424.9
aF9887.4099999999999
aF11513.1
aF9274
aF9427.0699999999997
aF10419.200000000001
aF9062.4300000000003
aF12668.5
aF8466.4699999999993
aF9944.6700000000001
aF9307.25
aF9353.9599999999991
aF8911.2399999999998
aF8135.3999999999996
aF8676.3700000000008
aF9954.1200000000008
aF9367.3700000000008
aF9968.4799999999996
aF10737.9
aF10880.6
aF11977.6
aF9047.7299999999996
aF12026
aF9694
aF9151.5300000000007
aF10191.4
aF13208.1
aF8653.4099999999999
aF10643.799999999999
aF10368.200000000001
aF10879.5
aF10139.5
aF9647.8600000000006
aF12237.5
aF10325.700000000001
aF11171.299999999999
aF8749.0200000000004
aF11819.5
aF10662.200000000001
aF10556.6
aF9640.7800000000007
aF11902.1
aF11236.5
aF10407.4
aF10251
aF12101
aF11175.799999999999
aF10943.4
aF10397.6
aF9812.7199999999993
aF8982.5200000000004
aF10037.6
aF9377.6900000000005
aF9591.7299999999996
aF11610.9
aF9655.9899999999998
aF8745.0300000000007
aF9367.5400000000009
aF7698.5200000000004
aF9142.3999999999996
aF10679.6
aF8411.8400000000001
aF11073.6
aF9562.4899999999998
aF12027.4
aF10136
aF10012.1
aF8779.9799999999996
aF10392
aF10658.9
aF10807.1
aF9549.6599999999999
aF11322
aF11239.799999999999
aF10034.9
aF10070.9
aF9880.1399999999994
aF10197.5
aF8098.96
aF8557.8299999999999
aF8483.75
aF10951.9
aF9374.3299999999999
aF8069.8999999999996
aF9072.0599999999995
aF11448.299999999999
aF7496.9700000000003
aF10865.200000000001
aF9849.6700000000001
aF10595.799999999999
aF11076.799999999999
aF11220.299999999999
aF10629.1
aF10770.200000000001
aF9605.4699999999993
aF11436.5
aF8057.5900000000001
aF9162.4899999999998
aF8282.5100000000002
aF10340
aF9842.1800000000003
aF9801.3600000000006
aF8016.1800000000003
aF9011.2700000000004
aF10635.5
aF9522.3400000000001
aF10137.700000000001
aF8557.2999999999993
aF9989.6200000000008
aF11170.799999999999
aF10349.700000000001
aF10017.9
aF8214.0499999999993
aF11483.4
aF9373.9799999999996
aF10303.200000000001
aF11533
aF10714.5
aF8696.2099999999991
aF10050.6
aF10148.200000000001
aF11582.4
aF9519.3400000000001
aF10608.799999999999
aF10911
aF9294.0100000000002
aF10752.200000000001
aF8935.2700000000004
aF8479.2000000000007
aF11185.5
aF10548.200000000001
aF8857.6200000000008
aF9259.4099999999999
aF9943.8700000000008
aF9313.8899999999994
aF10740.299999999999
aF8245.1299999999992
aF9963.0400000000009
aF9709.8799999999992
aF11369.1
aF9041.1800000000003
aF8589.5
aF9811.6200000000008
aF9065.3199999999997
aF7613.9799999999996
aF10145.4
aF7790.7700000000004
aF10022.6
aF11345.700000000001
aF8417.3600000000006
aF9991.7600000000002
aF10788.200000000001
aF9218.7099999999991
aF11256.1
aF9529.2999999999993
aF8759.0900000000001
aF7877.5500000000002
aF13010.700000000001
aF9284.3299999999999
aF11251
aF10553.299999999999
aF10201.5
aF8475.2099999999991
aF10724.700000000001
aF9584.3999999999996
aF8665.1900000000005
aF8221.7199999999993
aF11742.799999999999
aF9108.2600000000002
aF9595.0900000000001
aF9735.2099999999991
aF9184.5900000000001
aF8658.5900000000001
aF9504.6900000000005
aF9255.2800000000007
aF10035.1
aF10451.700000000001
aF8688.8700000000008
aF10259.1
aF10703.700000000001
aF10340.5
aF10751.299999999999
aF12084.299999999999
aF11298.5
aF10343.700000000001
aF8741.3199999999997
aF12358.299999999999
aF9831.8199999999997
aF10608.700000000001
aF9098.5100000000002
aF9700.3999999999996
aF10365.799999999999
aF10499.5
aF11160.5
aF9810.8600000000006
aF8945.3999999999996
aF10735.6
aF9163.7000000000007
aF10223.200000000001
aF9752.1399999999994
aF6983.0299999999997
aF11200.6
aF10089.799999999999
aF9506.0400000000009
aF9062.7199999999993
aF9584.7900000000009
aF9948.2299999999996
aF10456.5
aF12440.700000000001
aF9144.4899999999998
aF12063.6
aF7752.4399999999996
aF11209
aF10434.799999999999
aF9349.7700000000004
aF9639.2299999999996
aF9479.9799999999996
aF8717.3700000000008
aF9093.5799999999999
aF11068.299999999999
aF8477.6800000000003
aF10396.1
aF10360.799999999999
aF11580.200000000001
aF9490.4599999999991
aF8104.2399999999998
aF10479.6
aF9192.8700000000008
aF8295.0799999999999
aF7512.4399999999996
aF10118.299999999999
aF11193.299999999999
aF10107.5
aF9084.5100000000002
aF11063.299999999999
aF11220.799999999999
aF9603.3600000000006
aF9448.2299999999996
aF10943.700000000001
aF11107.4
aF7770.25
aF7923.8199999999997
aF10506.5
aF10716.299999999999
aF10375.700000000001
aF10029.700000000001
aF9493.75
aF8528.9799999999996
aF10212.700000000001
aF11581.200000000001
aF9453.4500000000007
aF9549.6900000000005
aF9389.5200000000004
aF8592.3999999999996
aF10808.6
aF8510.7800000000007
aF8600.9899999999998
aF8649.8999999999996
aF11214.1
aF11143.799999999999
aF11187.4
aF11484.200000000001
aF10499.4
aF9606.2199999999993
aF10675.5
aF12284.200000000001
aF9688.1399999999994
aF9352.7000000000007
aF9829.2700000000004
aF9609.6000000000004
aF10987.700000000001
aF9359.2299999999996
aF9133.6200000000008
aF9786.1599999999999
aF8489.7299999999996
aF10054.5
aF10208.4
aF10790.700000000001
aF9455.5100000000002
aF9867.0300000000007
aF9571.8500000000004
aF9481.5
aF10256.799999999999
aF9698.5900000000001
aF11429.4
aF9833.6499999999996
aF9906.9400000000005
aF10819.700000000001
aF10130.299999999999
aF9637.0799999999999
aF9407.3199999999997
aF9249.8299999999999
aF11699.299999999999
aF11313.200000000001
aF10116.299999999999
aF9974.9899999999998
aF10500.5
aF10656.1
aF10522.4
aF12172.299999999999
aF7906.1400000000003
aF10621.5
aF10265.9
aF8973.7000000000007
aF10646.9
aF8092.1499999999996
aF12518.4
aF10986.9
aF9821.2299999999996
aF8535.1700000000001
aF9075.7199999999993
aF8790.5799999999999
aF12110.6
aF9807.4500000000007
aF9103.5799999999999
aF9357.3199999999997
aF11178.4
aF9522.7900000000009
aF12519.799999999999
aF9591.25
aF10671.799999999999
aF9739.7800000000007
aF11351.200000000001
aF9054.7399999999998
aF11682
aF10463.5
aF11544.799999999999
aF9919.3999999999996
aF10103.5
aF11161
aF9816.4099999999999
aF11085.1
aF10263.6
aF10893.700000000001
aF10461.700000000001
aF12503.5
aF10672.799999999999
aF11365.299999999999
aF9791.3500000000004
aF9771.5200000000004
aF9516.7800000000007
aF9141.5499999999993
aF10203.700000000001
aF10659.9
aF9620.2700000000004
aF10142.5
aF8425.1000000000004
aF9468.6100000000006
aF9042.4200000000001
aF13689.6
aF9322.8299999999999
aF7934.5
aF10600.1
aF7806.54
aF7156.6099999999997
aF8787.5100000000002
aF9748.7999999999993
aF10574.799999999999
aF10875.4
aF10661.4
aF9427.7900000000009
aF9079.9300000000003
aF10284.9
aF11022.1
aF10857.799999999999
aF11874.5
aF9351.3700000000008
aF11549.9
aF10349.4
aF9679.25
aF10472
aF10018.6
aF9264.2000000000007
aF9439.2700000000004
aF9397.2399999999998
aF9686.2900000000009
aF10235.4
aF9854.7600000000002
aF10123
aF10622.6
aF9105.0799999999999
aF9626.0100000000002
aF8066.6899999999996
aF9558.7700000000004
aF10210.799999999999
aF7601.6199999999999
aF9523.5400000000009
aF11868.6
aF11938.700000000001
aF9050.9799999999996
aF11439.200000000001
aF9559.9599999999991
aF10900.5
aF8702
aF11047.9
aF10254.299999999999
aF9954.6200000000008
aF11761.799999999999
aF10023.700000000001
aF11773.700000000001
aF8354.9200000000001
aF10772.700000000001
aF8499.0100000000002
aF10144.5
aF8915.9599999999991
aF10906.4
aF10229.9
aF8740.2600000000002
aF9499.0499999999993
aF11806.9
aF9001.4500000000007
aF10237.1
aF11568.299999999999
aF12214.299999999999
aF10230.6
aF13677.200000000001
aF8623.2600000000002
aF13650.4
aF10587.5
aF9211.4699999999993
aF10022.5
aF9682.0699999999997
aF11329.5
aF10301.700000000001
aF8497.7099999999991
aF10129
aF9719.0200000000004
aF11113.700000000001
aF10501.9
aF9915.3700000000008
aF11101
aF11817
aF10694.6
aF10420.200000000001
aF9839.6700000000001
aF9676.7299999999996
aF8723.1299999999992
aF11482.9
aF9935.4200000000001
aF11189.1
aF9641.8600000000006
aF10048.200000000001
aF10551.4
aF10356.1
aF9703.4899999999998
aF9254.8700000000008
aF9493.3899999999994
aF10146
aF9970.5599999999995
aF8346.8700000000008
aF9038.2900000000009
aF8693.1200000000008
aF7853.8100000000004
aF11484.299999999999
aF11129
aF9197.7199999999993
aF11177.4
aF11146.299999999999
aF8435.6399999999994
aF11051.299999999999
aF9943.1700000000001
aF11288.5
aF8899.4699999999993
aF8205.3799999999992
aF9240.25
aF10111.700000000001
aF9197.7900000000009
aF9518.0400000000009
aF7965.1300000000001
aF11732.9
aF11591.5
aF9942.1200000000008
aF11185.4
aF8387.8999999999996
aF11052.9
aF9530.25
aF11311.299999999999
aF11005.6
aF10461.299999999999
aF10571
aF11769
aF10649.9
aF11875.799999999999
aF10205.299999999999
aF8827.4699999999993
aF9687.7700000000004
aF12047.9
aF9508.1100000000006
aF11858.700000000001
aF10276.1
aF9666.6200000000008
aF9682.5300000000007
aF10024.299999999999
aF9815.0900000000001
aF9913.3099999999995
aF10113.1
aF9897.8700000000008
aF10560.5
aF11922.799999999999
aF8934.7099999999991
aF9186.0200000000004
aF10491
aF9872.8299999999999
aF10838.200000000001
aF9836.3500000000004
aF9163.9300000000003
aF11555.299999999999
aF10496.4
aF9934.2399999999998
aF9228.0200000000004
aF12048.4
aF10064.6
aF9617.8899999999994
aF13767.299999999999
aF10212.200000000001
aF9604.5699999999997
aF9924.7399999999998
aF10783.200000000001
aF10073.9
aF9433.6900000000005
aF9231.1499999999996
aF9362.8999999999996
aF9711.6299999999992
aF10756.299999999999
aF10364.9
aF10018.4
aF10535.9
aF11424.5
aF9307.8600000000006
aF9857.0100000000002
aF8332.2000000000007
aF9746.0300000000007
aF11591.6
aF9923.5699999999997
aF14413.4
aF10768.5
aF9954.0499999999993
aF9531.5499999999993
aF10611.200000000001
aF11246.9
aF8826.2999999999993
aF7914.5
aF9160.4200000000001
aF9669.9300000000003
aF12191.4
aF8571.8299999999999
aF9527.2000000000007
aF10052.4
aF10390.200000000001
aF10052.200000000001
aF9732.9099999999999
aF10857
aF9516.9099999999999
aF10655.4
aF10110.799999999999
aF10940.6
aF9981.1599999999999
aF9885.1399999999994
aF11261.6
aF10526.299999999999
aF10880.799999999999
aF10333.799999999999
aF11583.700000000001
aF10347.799999999999
aF10017.1
aF9006.5
aF11084.299999999999
aF11762.6
aF8936.0400000000009
aF10937.4
aF9476.5100000000002
aF11748.799999999999
aF11606.9
aF9120.4599999999991
aF11585.5
aF9579.4599999999991
aF10952.299999999999
aF11708.200000000001
aF11199.700000000001
aF10250.5
aF10007.200000000001
aF9801.25
aF9297.4200000000001
aF10410.5
aF10261.299999999999
aF9395.9099999999999
aF8617.9899999999998
aF10274.1
aF9719.9400000000005
aF10395.5
aF10336.200000000001
aF10358
aF11010.200000000001
aF9299.9799999999996
aF11975.799999999999
aF9785.4099999999999
aF11051.700000000001
aF9733.3700000000008
aF9698.8400000000001
aF8787.2199999999993
aF9570.5200000000004
aF11752.4
aF9172.2999999999993
aF9105.5699999999997
aF9152.9899999999998
aF9641.7399999999998
aF9346.1100000000006
aF10350
aF9093.8299999999999
aF9473.3799999999992
aF10659.6
aF9839.5100000000002
aF7956.0699999999997
aF10612.799999999999
aF10171.9
aF10588.200000000001
aF11226.700000000001
aF10776.299999999999
aF9251.6800000000003
aF9261.5200000000004
aF9041.7999999999993
aF9957.6399999999994
aF9240.6399999999994
aF10131.700000000001
aF10118.299999999999
aF11385.200000000001
aF11529.9
aF10087.799999999999
aF8626.9099999999999
aF12849.6
aF10453.299999999999
aF10198.200000000001
aF9795.7099999999991
aF9278.8199999999997
aF11388.1
aF10846.9
aF10767.9
aF11239.6
aF11045.5
aF8392.8899999999994
aF10347.9
aF9369.7900000000009
aF12071.4
aF8656.9099999999999
aF12312.299999999999
aF10837
aF11517.200000000001
aF10511.9
aF9302.5499999999993
aF11030.799999999999
aF9912.4799999999996
aF9881.0499999999993
aF9615.9200000000001
aF9727.2800000000007
aF10046.5
aF10301
aF10148.700000000001
aF9719.9200000000001
aF9345.25
aF11055.4
aF9087.6000000000004
aF10844.4
aF9439.3700000000008
aF11401.700000000001
aF10449.1
aF8455.2600000000002
aF12882.6
aF9272.25
aF10322.6
aF9106.8600000000006
aF10682.299999999999
aF10277.1
aF9523.5
aF10060.1
aF10919.9
aF8840.3799999999992
aF8779.2700000000004
aF10048.799999999999
aF10558.299999999999
aF9819.5100000000002
aF10835.4
aF10235.1
aF11329.200000000001
aF8940.6000000000004
aF9247.7900000000009
aF7428.8100000000004
aF10875.799999999999
aF10088.9
aF9576
aF9920.8799999999992
aF10900.1
aF11332.4
aF11740.299999999999
aF9241.7800000000007
aF12641.200000000001
aF11018.6
aF11684.4
aF9122.9899999999998
aF10637.6
aF8430.9400000000005
aF9324.6700000000001
aF9849.5699999999997
aF10128.4
aF10589.6
aF8839.7199999999993
aF10163.700000000001
aF9258.3299999999999
aF11676.6
aF11048.799999999999
aF10339.200000000001
aF12570.9
aF11402.5
aF11312.9
aF11397.799999999999
aF9298.5200000000004
aF9654.7099999999991
aF10532.700000000001
aF10338
aF10406.299999999999
aF12363.4
aF9337.4400000000005
aF8790.7600000000002
aF11394.4
aF8000.0200000000004
aF11686.6
aF9673.6900000000005
aF11490.9
aF11412.200000000001
aF11170.4
aF11040.6
aF10889.9
aF10844.5
aF10889.700000000001
aF10893.700000000001
aF10455.9
aF8856.3899999999994
aF11001.6
aF11118.5
aF9852.5799999999999
aF9939.9899999999998
aF9963.2700000000004
aF9775.7299999999996
aF13493.200000000001
aF11116
aF9119.2800000000007
aF11214.5
aF10495.4
aF9919.7199999999993
aF9369.1900000000005
aF13275.6
aF10389.4
aF9158.8700000000008
aF9768.5699999999997
aF8666.7600000000002
aF8739.4300000000003
aF9363
aF8851.1800000000003
aF10358.1
aF10208.799999999999
aF9765.2700000000004
aF10661.4
aF11606
aF9184.8899999999994
aF12448.299999999999
aF8777.2900000000009
aF9692.7600000000002
aF10817.700000000001
aF8742.8400000000001
aF9815.9699999999993
aF10595.299999999999
aF10073
aF9361.4799999999996
aF11694.4
aF7634.0299999999997
aF10051.6
aF9579.1499999999996
aF11160.799999999999
aF9240.1800000000003
aF10246.4
aF11438.299999999999
aF11430
aF9207.4300000000003
aF11761.200000000001
aF11057
aF11090.4
aF10001.799999999999
aF10400.6
aF9462.4599999999991
aF9641.4500000000007
aF11575.4
aF10735
aF9538.8299999999999
aF11802.299999999999
aF9069.1200000000008
aF9785.4799999999996
aF10713.6
aF9364.3799999999992
aF10088.200000000001
aF8466
aF9412.8899999999994
aF7826.6999999999998
aF9465.4699999999993
aF11244.5
aF11018.1
aF10631.200000000001
aF8950.75
aF10457.1
aF11487.5
aF9311.2900000000009
aF10087.700000000001
aF8742.9599999999991
aF9644.2999999999993
aF10852.9
aF11081.1
aF10845
aF10012
aF10749.200000000001
aF10430.299999999999
aF9844.6399999999994
aF10055.6
aF11014.1
aF9508.2299999999996
aF11108.200000000001
aF11587.799999999999
aF10245.9
aF8421.0300000000007
aF8860.3600000000006
aF11392.5
aF9184.3400000000001
aF9868.3999999999996
aF12508.799999999999
aF13990.4
aF8898.6200000000008
aF10997.200000000001
aF10063.799999999999
aF11394
aF10283.200000000001
aF8947.1200000000008
aF11566.5
aF6788.9399999999996
aF7905.8800000000001
aF11193.1
aF10447.1
aF9643.7900000000009
aF9726
aF11360.700000000001
aF8709.0599999999995
aF9988.8999999999996
aF11160
aF8498.5
aF10336.5
aF11303.799999999999
aF9623.5900000000001
aF10291.200000000001
aF10030.200000000001
aF10508.6
aF9770.6299999999992
aF11140
aF9204.1900000000005
aF10095.5
aF9402.3299999999999
aF10271.1
aF10326.299999999999
aF10718.200000000001
aF9605.9500000000007
aF10565.1
aF11513.799999999999
aF10518.200000000001
aF10173.200000000001
aF9912.3400000000001
aF9393.4099999999999
aF9649.0900000000001
aF10234.1
aF9984.7099999999991
aF10586.299999999999
aF7806.71
aF9112.9400000000005
aF10385.9
aF9350.9599999999991
aF9922.5400000000009
aF12155
aF10722.799999999999
aF8968.0699999999997
aF8743.0499999999993
aF11142.799999999999
aF9978.9200000000001
aF10873.200000000001
aF9866.5300000000007
aF10360.299999999999
aF9046.9300000000003
aF9987.7800000000007
aF11577.799999999999
aF11033.200000000001
aF8677.1399999999994
aF9250.7399999999998
aF9858.8700000000008
aF10540.200000000001
aF11137.299999999999
aF9775.2600000000002
aF11327.700000000001
aF9447.7000000000007
aF7864.6899999999996
aF8851.8299999999999
aF10227.700000000001
aF9787.8299999999999
aF10885.200000000001
aF8756.0799999999999
aF10427.700000000001
aF10833.299999999999
aF11389.1
aF10747.9
aF9920.2000000000007
aF9298.7199999999993
aF11835.5
aF7004.1300000000001
aF8685.6299999999992
aF9884.3099999999995
aF8488.5699999999997
aF8446.3899999999994
aF9831.8799999999992
aF10305.799999999999
aF9458.4599999999991
aF10797.1
aF10567.799999999999
aF9082.6399999999994
aF9270.3799999999992
aF11212.4
aF9216.8700000000008
aF9700.4099999999999
aF8684.5699999999997
aF9319.9899999999998
aF9583.8400000000001
aF9474.6100000000006
aF10645.4
aF9605.1599999999999
aF8767.1900000000005
aF9260.6800000000003
aF10266.299999999999
aF8972.3999999999996
aF10328.4
aF9582.0100000000002
aF10145.700000000001
aF9551.7999999999993
aF10103
aF10695.4
aF10115.1
aF8631.7099999999991
aF11898.700000000001
aF10136.799999999999
aF9666.3999999999996
aF8551.5499999999993
aF11154.299999999999
aF11093.700000000001
aF9916.3999999999996
aF9826.4599999999991
aF10427.299999999999
aF9125.9799999999996
aF9686.1599999999999
aF9738.4899999999998
aF10446.700000000001
aF7726.3500000000004
aF9504.6700000000001
aF11008.299999999999
aF10023.6
aF11767.700000000001
aF10124.5
aF9708.6800000000003
aF10959.6
aF10104.700000000001
aF10379.9
aF9935.2800000000007
aF9427.1200000000008
aF8178.8100000000004
aF8426.0699999999997
aF9582.4300000000003
aF10299.6
aF10099.700000000001
aF9554.3999999999996
aF10350.700000000001
aF11013.799999999999
aF9036.2299999999996
aF10774.1
aF9889.6299999999992
aF10761.4
aF10103.6
aF10654.6
aF9236.6399999999994
aF11376
aF9184.0799999999999
aF12063.700000000001
aF10078.6
aF12861.5
aF9977.4300000000003
aF11407.1
aF8699.4099999999999
aF9921.6700000000001
aF9650.8299999999999
aF11792.700000000001
aF12544.6
aF10123.5
aF11211.299999999999
aF9086.4899999999998
aF10692.4
aF8584.5300000000007
aF9625.5400000000009
aF10416.700000000001
aF9570.8600000000006
aF8791.7000000000007
aF9561.4300000000003
aF8664.0599999999995
aF10992.4
aF9128.3199999999997
aF11366.700000000001
aF10820.700000000001
aF9865.6200000000008
aF9918.4099999999999
aF9119.5100000000002
aF12353.9
aF10924.799999999999
aF8928.8500000000004
aF11478.700000000001
aF10133.299999999999
aF11598.200000000001
aF10556
aF11420.299999999999
aF9660.5200000000004
aF10528.4
aF9174.9699999999993
aF11543.4
aF10706.799999999999
aF10081.5
aF9995.3500000000004
aF9006.8700000000008
aF12166.799999999999
aF11260.9
aF10556.9
aF10283.9
aF12181.9
aF9398.25
aF12321.6
aF8859.1200000000008
aF9242.2399999999998
aF8937.2999999999993
aF10471.9
aF10221.6
aF10414.799999999999
aF9862.2999999999993
aF9282.9599999999991
aF9785.1200000000008
aF10673.299999999999
aF11250.299999999999
aF9713.0799999999999
aF10305.200000000001
aF9687.0400000000009
aF11994.6
aF10312.4
aF12054.4
aF10713.799999999999
aF8722.2000000000007
aF9441.7000000000007
aF8885.6299999999992
aF9573.4099999999999
aF7700.3800000000001
aF10939.9
aF9531.3600000000006
aF9068.8999999999996
aF9256.0900000000001
aF10370.799999999999
aF9712.7299999999996
aF9767.8999999999996
aF8769.5100000000002
aF10114.299999999999
aF8205.9099999999999
aF11695.299999999999
aF8497.8899999999994
aF9354.1399999999994
aF9931.8099999999995
aF10998.6
aF9803.4400000000005
aF9482.3400000000001
aF12265.5
aF10329.700000000001
aF11110.299999999999
aF9863.9200000000001
aF9316.2099999999991
aF10381.4
aF10585.299999999999
aF11007.4
aF10436.200000000001
aF9496.9599999999991
aF8941.2199999999993
aF10029.4
aF11469.799999999999
aF9852.8899999999994
aF9435.4799999999996
aF10028.700000000001
aF10767.299999999999
aF9824.1200000000008
aF10484.299999999999
aF10566.5
aF9522.6700000000001
aF12121.700000000001
aF11740.700000000001
aF9562.1200000000008
aF9630.5200000000004
aF9888.1200000000008
aF10374.6
aF9052.0100000000002
aF11280.700000000001
aF11337.799999999999
aF10392.1
aF10523
aF9471.4099999999999
aF9055.2800000000007
aF10526.6
aF10539.299999999999
aF8830.7099999999991
aF9929.6800000000003
aF10521.200000000001
aF9918.7600000000002
aF9675.2700000000004
aF10848.1
aF10049
aF9958.4400000000005
aF10036.200000000001
aF10690.9
aF11028.6
aF9244.3799999999992
aF11990.6
aF10464.799999999999
aF10723.1
atp5
s.