(dp1
S'TRAIN'
p2
((lp3
I0
aI20
aI40
aI60
aI80
aI100
aI120
aI140
aI160
aI180
aI200
aI220
aI240
aI260
aI280
aI300
aI320
aI340
aI360
aI380
aI400
aI420
aI440
aI460
aI480
aI500
aI520
aI540
aI560
aI580
aI600
aI620
aI640
aI660
aI680
aI700
aI720
aI740
aI760
aI780
aI800
aI820
aI840
aI860
aI880
aI900
aI920
aI940
aI960
aI980
aI1000
aI1020
aI1040
aI1060
aI1080
aI1100
aI1120
aI1140
aI1160
aI1180
aI1200
aI1220
aI1240
aI1260
aI1280
aI1300
aI1320
aI1340
aI1360
aI1380
aI1400
aI1420
aI1440
aI1460
aI1480
aI1500
aI1520
aI1540
aI1560
aI1580
aI1600
aI1620
aI1640
aI1660
aI1680
aI1700
aI1720
aI1740
aI1760
aI1780
aI1800
aI1820
aI1840
aI1860
aI1880
aI1900
aI1920
aI1940
aI1960
aI1980
aI2000
aI2020
aI2040
aI2060
aI2080
aI2100
aI2120
aI2140
aI2160
aI2180
aI2200
aI2220
aI2240
aI2260
aI2280
aI2300
aI2320
aI2340
aI2360
aI2380
aI2400
aI2420
aI2440
aI2460
aI2480
aI2500
aI2520
aI2540
aI2560
aI2580
aI2600
aI2620
aI2640
aI2660
aI2680
aI2700
aI2720
aI2740
aI2760
aI2780
aI2800
aI2820
aI2840
aI2860
aI2880
aI2900
aI2920
aI2940
aI2960
aI2980
aI3000
aI3020
aI3040
aI3060
aI3080
aI3100
aI3120
aI3140
aI3160
aI3180
aI3200
aI3220
aI3240
aI3260
aI3280
aI3300
aI3320
aI3340
aI3360
aI3380
aI3400
aI3420
aI3440
aI3460
aI3480
aI3500
aI3520
aI3540
aI3560
aI3580
aI3600
aI3620
aI3640
aI3660
aI3680
aI3700
aI3720
aI3740
aI3760
aI3780
aI3800
aI3820
aI3840
aI3860
aI3880
aI3900
aI3920
aI3940
aI3960
aI3980
aI4000
aI4020
aI4040
aI4060
aI4080
aI4100
aI4120
aI4140
aI4160
aI4180
aI4200
aI4220
aI4240
aI4260
aI4280
aI4300
aI4320
aI4340
aI4360
aI4380
aI4400
aI4420
aI4440
aI4460
aI4480
aI4500
aI4520
aI4540
aI4560
aI4580
aI4600
aI4620
aI4640
aI4660
aI4680
aI4700
aI4720
aI4740
aI4760
aI4780
aI4800
aI4820
aI4840
aI4860
aI4880
aI4900
aI4920
aI4940
aI4960
aI4980
aI5000
aI5020
aI5040
aI5060
aI5080
aI5100
aI5120
aI5140
aI5160
aI5180
aI5200
aI5220
aI5240
aI5260
aI5280
aI5300
aI5320
aI5340
aI5360
aI5380
aI5400
aI5420
aI5440
aI5460
aI5480
aI5500
aI5520
aI5540
aI5560
aI5580
aI5600
aI5620
aI5640
aI5660
aI5680
aI5700
aI5720
aI5740
aI5760
aI5780
aI5800
aI5820
aI5840
aI5860
aI5880
aI5900
aI5920
aI5940
aI5960
aI5980
aI6000
aI6020
aI6040
aI6060
aI6080
aI6100
aI6120
aI6140
aI6160
aI6180
aI6200
aI6220
aI6240
aI6260
aI6280
aI6300
aI6320
aI6340
aI6360
aI6380
aI6400
aI6420
aI6440
aI6460
aI6480
aI6500
aI6520
aI6540
aI6560
aI6580
aI6600
aI6620
aI6640
aI6660
aI6680
aI6700
aI6720
aI6740
aI6760
aI6780
aI6800
aI6820
aI6840
aI6860
aI6880
aI6900
aI6920
aI6940
aI6960
aI6980
aI7000
aI7020
aI7040
aI7060
aI7080
aI7100
aI7120
aI7140
aI7160
aI7180
aI7200
aI7220
aI7240
aI7260
aI7280
aI7300
aI7320
aI7340
aI7360
aI7380
aI7400
aI7420
aI7440
aI7460
aI7480
aI7500
aI7520
aI7540
aI7560
aI7580
aI7600
aI7620
aI7640
aI7660
aI7680
aI7700
aI7720
aI7740
aI7760
aI7780
aI7800
aI7820
aI7840
aI7860
aI7880
aI7900
aI7920
aI7940
aI7960
aI7980
aI8000
aI8020
aI8040
aI8060
aI8080
aI8100
aI8120
aI8140
aI8160
aI8180
aI8200
aI8220
aI8240
aI8260
aI8280
aI8300
aI8320
aI8340
aI8360
aI8380
aI8400
aI8420
aI8440
aI8460
aI8480
aI8500
aI8520
aI8540
aI8560
aI8580
aI8600
aI8620
aI8640
aI8660
aI8680
aI8700
aI8720
aI8740
aI8760
aI8780
aI8800
aI8820
aI8840
aI8860
aI8880
aI8900
aI8920
aI8940
aI8960
aI8980
aI9000
aI9020
aI9040
aI9060
aI9080
aI9100
aI9120
aI9140
aI9160
aI9180
aI9200
aI9220
aI9240
aI9260
aI9280
aI9300
aI9320
aI9340
aI9360
aI9380
aI9400
aI9420
aI9440
aI9460
aI9480
aI9500
aI9520
aI9540
aI9560
aI9580
aI9600
aI9620
aI9640
aI9660
aI9680
aI9700
aI9720
aI9740
aI9760
aI9780
aI9800
aI9820
aI9840
aI9860
aI9880
aI9900
aI9920
aI9940
aI9960
aI9980
aI10000
aI10020
aI10040
aI10060
aI10080
aI10100
aI10120
aI10140
a(lp4
F127986
aF90042.800000000003
aF96634.199999999997
aF98891.899999999994
aF68754.600000000006
aF101338
aF77537.199999999997
aF53518.900000000001
aF84745.100000000006
aF93191.100000000006
aF63705.199999999997
aF75082
aF62439.699999999997
aF67365.199999999997
aF58529.400000000001
aF78247.5
aF58480
aF68065.699999999997
aF58541.099999999999
aF49651.099999999999
aF49833.300000000003
aF55661.599999999999
aF95219
aF53248.199999999997
aF79434.100000000006
aF71600.600000000006
aF72584.399999999994
aF51748.900000000001
aF40012.400000000001
aF49879.400000000001
aF58470.400000000001
aF50195.099999999999
aF39666.5
aF46902.699999999997
aF43194.900000000001
aF53006.5
aF67687.300000000003
aF48508.699999999997
aF56638.699999999997
aF53103.900000000001
aF48237.900000000001
aF52685.800000000003
aF45377.199999999997
aF52971.599999999999
aF49050.800000000003
aF54040.5
aF64646.800000000003
aF40408
aF69498.899999999994
aF40727.5
aF49250.900000000001
aF42063.900000000001
aF45009.099999999999
aF45364.199999999997
aF41296.199999999997
aF47941.599999999999
aF52601.800000000003
aF46040.5
aF50959.400000000001
aF48933.900000000001
aF37763.099999999999
aF40454.599999999999
aF54826.5
aF46770.800000000003
aF53660.099999999999
aF37011.5
aF48608.599999999999
aF48656.400000000001
aF32770.5
aF44604.5
aF48922
aF38355
aF42219.5
aF37154.300000000003
aF47639.5
aF37487.900000000001
aF43462.800000000003
aF44731.599999999999
aF44898.300000000003
aF30363.400000000001
aF48821.300000000003
aF56647
aF35934.800000000003
aF49111.5
aF40760.099999999999
aF38256.800000000003
aF31447.599999999999
aF33187.400000000001
aF35579
aF32421.200000000001
aF44525.5
aF30722.799999999999
aF37758.699999999997
aF21598.799999999999
aF45701.699999999997
aF51687.5
aF23579.5
aF38506.300000000003
aF30051.099999999999
aF29471.599999999999
aF44407.699999999997
aF39245.099999999999
aF32598.599999999999
aF30047.099999999999
aF43762.199999999997
aF40220.400000000001
aF36026.900000000001
aF33497.199999999997
aF29300.299999999999
aF22915
aF25797.900000000001
aF43531.300000000003
aF37631.199999999997
aF23948.900000000001
aF48179.900000000001
aF42551.099999999999
aF28082.5
aF38176.300000000003
aF25057
aF30929.299999999999
aF33193.699999999997
aF54906.599999999999
aF23553.5
aF24815.099999999999
aF36368
aF39327.900000000001
aF34794.199999999997
aF36825.199999999997
aF29124.5
aF38801.699999999997
aF36605.300000000003
aF35310.599999999999
aF26397.799999999999
aF40325.699999999997
aF35777.699999999997
aF34439.900000000001
aF31635.900000000001
aF38164.400000000001
aF28392
aF30491.200000000001
aF22987.900000000001
aF28208.099999999999
aF30815.5
aF30172.799999999999
aF23652.299999999999
aF32545.400000000001
aF27576.799999999999
aF41909.800000000003
aF34265.900000000001
aF30275.900000000001
aF36258.699999999997
aF32535.599999999999
aF29848.200000000001
aF32924.199999999997
aF22111.400000000001
aF22833
aF27953.900000000001
aF29765.299999999999
aF28911.099999999999
aF39293.699999999997
aF27103.900000000001
aF25261.099999999999
aF34712.099999999999
aF42871.199999999997
aF31153
aF45147.5
aF28766.200000000001
aF35659.5
aF28199.900000000001
aF32515.099999999999
aF26631
aF30697.900000000001
aF22550.599999999999
aF20374.400000000001
aF50541.800000000003
aF39536.099999999999
aF40218.099999999999
aF34862.800000000003
aF40269.300000000003
aF26069.099999999999
aF35514.599999999999
aF34099.199999999997
aF32915.900000000001
aF25126.299999999999
aF34142.199999999997
aF33196.5
aF30044.400000000001
aF31879.099999999999
aF32877.599999999999
aF33068.300000000003
aF30398.5
aF56324.900000000001
aF30980.599999999999
aF35688.300000000003
aF32065.700000000001
aF48178.5
aF35371.300000000003
aF33699.5
aF32035.099999999999
aF36994
aF25899.200000000001
aF39145.400000000001
aF25073.400000000001
aF26413
aF34028.099999999999
aF31366.599999999999
aF31991.200000000001
aF33560.699999999997
aF27488.099999999999
aF27260
aF29568.900000000001
aF29025.5
aF32887.199999999997
aF32787
aF26918
aF33950
aF32911.900000000001
aF22004
aF25357.200000000001
aF36309.900000000001
aF27817.299999999999
aF32411
aF31305.700000000001
aF37843.300000000003
aF33233.300000000003
aF28133
aF35194.599999999999
aF25071.700000000001
aF23521.5
aF29599
aF26277.400000000001
aF27217.900000000001
aF26158.5
aF27430.200000000001
aF27708.5
aF22825.900000000001
aF23184.599999999999
aF31211.099999999999
aF26091.5
aF26246.599999999999
aF30366.299999999999
aF29064.5
aF22660.5
aF27740.400000000001
aF27532.799999999999
aF26265.400000000001
aF30737.900000000001
aF31131.5
aF25998.599999999999
aF24233.799999999999
aF26273.5
aF36777.900000000001
aF25374.900000000001
aF24461.799999999999
aF23983.400000000001
aF32088.200000000001
aF23621.700000000001
aF33319.699999999997
aF31716.099999999999
aF35545.699999999997
aF26165.299999999999
aF23712.099999999999
aF26157.700000000001
aF24881.099999999999
aF19511.700000000001
aF31264.700000000001
aF27242.400000000001
aF31064.700000000001
aF25156.799999999999
aF43132.300000000003
aF36891.699999999997
aF31524.200000000001
aF24376
aF32126.799999999999
aF25927.099999999999
aF23303.099999999999
aF26775.200000000001
aF32595.700000000001
aF28037.400000000001
aF27708
aF27096.299999999999
aF33241.599999999999
aF21637.900000000001
aF37536.699999999997
aF27856.799999999999
aF32144.299999999999
aF31908.099999999999
aF30705.700000000001
aF25478.799999999999
aF20878
aF30262.799999999999
aF19070.5
aF36262.900000000001
aF26576.200000000001
aF18797.200000000001
aF31629.799999999999
aF36408.300000000003
aF27887.099999999999
aF31921.400000000001
aF21488.900000000001
aF38456.5
aF26079
aF25818.900000000001
aF25444.5
aF27829.099999999999
aF35354.599999999999
aF21022.700000000001
aF25180.5
aF20430.5
aF34095.800000000003
aF28495
aF22296.799999999999
aF30262.599999999999
aF30698.299999999999
aF28389.900000000001
aF37754.099999999999
aF27343.099999999999
aF26283.700000000001
aF25230
aF26008.799999999999
aF22821.5
aF25485.5
aF27618.900000000001
aF35212.300000000003
aF28033.5
aF23748.299999999999
aF24635.299999999999
aF32089.400000000001
aF39833.199999999997
aF34658.800000000003
aF27308.900000000001
aF26108.900000000001
aF28837.5
aF26413.400000000001
aF25044.900000000001
aF24257.900000000001
aF26343.700000000001
aF31385.700000000001
aF19545.599999999999
aF28559.299999999999
aF25125
aF26895.200000000001
aF29582
aF34436.099999999999
aF28147.400000000001
aF29405.400000000001
aF25294.599999999999
aF34390.300000000003
aF35838.099999999999
aF26991.299999999999
aF24147
aF28701
aF26118
aF35662.699999999997
aF40155.900000000001
aF21375.700000000001
aF25885.599999999999
aF28431.5
aF26195.299999999999
aF28238.400000000001
aF28185.200000000001
aF18562.299999999999
aF40862.699999999997
aF23972.299999999999
aF25989.099999999999
aF22505.799999999999
aF17234.5
aF26255.599999999999
aF36799.800000000003
aF27359.099999999999
aF32351.400000000001
aF29092.5
aF29837.799999999999
aF29220.5
aF30981.599999999999
aF37325.400000000001
aF25968.700000000001
aF24767.099999999999
aF25419.5
aF38221
aF29896.299999999999
aF31054.299999999999
aF17842.5
aF23555.700000000001
aF29995.900000000001
aF20012.700000000001
aF20300.599999999999
aF20441.299999999999
aF33844.400000000001
aF27650.799999999999
aF33336
aF19203.900000000001
aF20678.400000000001
aF25913.5
aF15107.6
aF27287.799999999999
aF32731.5
aF26644.700000000001
aF21151.400000000001
aF31107.200000000001
aF28808.200000000001
aF37646.400000000001
aF26887.5
aF37714.800000000003
aF26623.900000000001
aF24153.299999999999
aF25794.900000000001
aF25057.200000000001
aF20561.299999999999
aF32923.5
aF35094.099999999999
aF31406.599999999999
aF28023.799999999999
aF44908.099999999999
aF33046.099999999999
aF31445.599999999999
aF36214
aF32955.5
aF22327.599999999999
aF29290
aF23913
aF22141.5
aF24796.299999999999
aF26256.700000000001
aF24446
aF24478.200000000001
aF40178
aF25803.599999999999
aF23945.599999999999
aF27652.700000000001
aF25678.299999999999
aF23643.200000000001
aF24615.599999999999
aF26699.400000000001
aF20956.599999999999
aF40213.199999999997
aF28791.400000000001
aF27543.099999999999
aF34554.099999999999
aF31223.400000000001
aF33189.599999999999
aF28897.5
aF22185
aF25041.299999999999
aF25858.799999999999
aF29897.900000000001
aF25786.299999999999
aF20652.299999999999
aF32818.300000000003
aF23429.799999999999
aF25664.299999999999
aF26304.700000000001
aF30415.900000000001
aF28421.099999999999
aF31135.599999999999
aF35700.800000000003
aF24337
aF23234.700000000001
aF16700.900000000001
aF26642.799999999999
aF31743.700000000001
aF26805.799999999999
aF23127.299999999999
aF39747
aF23722.299999999999
aF30984.799999999999
aF27970.900000000001
aF31752.400000000001
aF23759.599999999999
aF26829
aF30504
aF18942.799999999999
aF25764.700000000001
aF25788.799999999999
aF27293.299999999999
aF19713.599999999999
aF27153.200000000001
aF30314
aF26435.299999999999
aF34376.699999999997
aF31537.299999999999
aF25792.400000000001
aF24623.400000000001
aF24979.099999999999
aF31708.200000000001
aF27549.599999999999
aF27273
aF30025.599999999999
aF19238.200000000001
aF31323.900000000001
aF25459
aF39003.199999999997
aF33067.199999999997
aF22619.200000000001
aF30110.700000000001
aF23373.700000000001
aF19778.5
aF26727
aF25762.200000000001
aF31087.5
aF21523.799999999999
aF30761.900000000001
aF27014.799999999999
aF27594
aF29403.400000000001
aF13280.6
aF19202.900000000001
aF15461
atp5
s.